Archive member included because of file (symbol)

../../../nxtOSEK/ecrobot/../ecrobot/libecrobot.a(ecrobot_HiTechnic.o)
                              build/sample.o (ecrobot_get_gyro_sensor)
../../../nxtOSEK/ecrobot/../ecrobot/libecrobot.a(ecrobot_interface.o)
                              build/sample.o (ecrobot_set_light_sensor_active)
../../../nxtOSEK/ecrobot/../ecrobot/libecrobot.a(colorsensor.o)
                              ../../../nxtOSEK/ecrobot/../ecrobot/libecrobot.a(ecrobot_interface.o) (colorsensor_init)
../../../nxtOSEK/ecrobot/../ecrobot/libecrobot.a(osek_hook.o)
                              build/kernel/osctl.o (StartupHook)
../../../nxtOSEK/ecrobot/../ecrobot/libecrobot.a(uart.oram)
                              build/config/at91sam7s-gnu/irq.oram (uart_isr_C_0)
../../../nxtOSEK/ecrobot/../ecrobot/libecrobot.a(systick.oram)
                              build/syslib/at91sam7s-gnu/lego_nxt/hw_sys_timer.oram (systick_low_priority_C)
../../../nxtOSEK/ecrobot/../ecrobot/libecrobot.a(byte_fifo.oram)
                              ../../../nxtOSEK/ecrobot/../ecrobot/libecrobot.a(uart.oram) (byte_fifo_init)
../../../nxtOSEK/ecrobot/../ecrobot/libecrobot.a(aic.oram)
                              ../../../nxtOSEK/ecrobot/../ecrobot/libecrobot.a(uart.oram) (aic_set_vector)
../../../nxtOSEK/ecrobot/../ecrobot/libecrobot.a(udp.oram)
                              build/config/at91sam7s-gnu/irq.oram (udp_isr_C)
../../../nxtOSEK/ecrobot/../ecrobot/libecrobot.a(twi.oram)
                              build/config/at91sam7s-gnu/irq.oram (twi_isr_C)
../../../nxtOSEK/ecrobot/../ecrobot/libecrobot.a(nxt_spi.oram)
                              build/config/at91sam7s-gnu/irq.oram (spi_isr_C)
../../../nxtOSEK/ecrobot/../ecrobot/libecrobot.a(nxt_motors.oram)
                              build/sample.o (nxt_motor_get_count)
../../../nxtOSEK/ecrobot/../ecrobot/libecrobot.a(data_abort.oram)
                              build/ecrobot_init.o (data_abort_C)
../../../nxtOSEK/ecrobot/../ecrobot/libecrobot.a(display.oram)
                              build/ecrobot_base.o (display_update)
../../../nxtOSEK/ecrobot/../ecrobot/libecrobot.a(i2c.oram)
                              build/config/at91sam7s-gnu/irq.oram (i2c_timer_isr_C)
../../../nxtOSEK/ecrobot/../ecrobot/libecrobot.a(sound.oram)
                              ../../../nxtOSEK/ecrobot/../ecrobot/libecrobot.a(ecrobot_interface.o) (sound_freq_vol)
../../../nxtOSEK/ecrobot/../ecrobot/libecrobot.a(bt.oram)
                              build/ecrobot_bluetooth.o (bt_send)
../../../nxtOSEK/ecrobot/../ecrobot/libecrobot.a(nxt_avr.oram)
                              build/ecrobot_base.o (nxt_avr_power_down)
../../../nxtOSEK/ecrobot/../ecrobot/libecrobot.a(sensors.oram)
                              ../../../nxtOSEK/ecrobot/../ecrobot/libecrobot.a(ecrobot_interface.o) (set_digi0)
../../../nxtOSEK/ecrobot/../ecrobot/libecrobot.a(sensors1.oram)
                              ../../../nxtOSEK/ecrobot/../ecrobot/libecrobot.a(colorsensor.o) (sp_read)
../../../nxtOSEK/ecrobot/../ecrobot/libecrobot.a(nxt_lcd.oram)
                              ../../../nxtOSEK/ecrobot/../ecrobot/libecrobot.a(display.oram) (nxt_lcd_force_update)
../../../nxtOSEK/ecrobot/../ecrobot/libecrobot.a(flash_loader.oram)
                              build/ecrobot.o (set_flash_request)
../../../nxtOSEK/ecrobot/../ecrobot/libecrobot.a(interrupts.oram)
                              ../../../nxtOSEK/ecrobot/../ecrobot/libecrobot.a(uart.oram) (interrupts_get_and_disable)
../../../nxtOSEK/ecrobot/../ecrobot/libecrobot.a(nxtosek_splash.obmp)
                              build/ecrobot_base.o (nxtosek_splash_bmp_start)
../../../nxtOSEK/ecrobot/../ecrobot/libecrobot.a(ecrobot_usb.o)
                              ../../../nxtOSEK/ecrobot/../ecrobot/libecrobot.a(flash_loader.oram) (ecrobot_init_usb)
../../../nxtOSEK/ecrobot/../ecrobot/libecrobot.a(flashprog.oram)
                              ../../../nxtOSEK/ecrobot/../ecrobot/libecrobot.a(flash_loader.oram) (flash_write_page)
../../../nxtOSEK/ecrobot/../ecrobot/libnxtway_gs_balancer.a(balancer.o)
                              build/sample.o (balance_control)
/Users/e125754/etrobo/yagarto-4.6.2/bin/../lib/gcc/arm-none-eabi/4.6.2/thumb/libgcc.a(_thumb1_case_uqi.o)
                              ../../../nxtOSEK/ecrobot/../ecrobot/libecrobot.a(uart.oram) (__gnu_thumb1_case_uqi)
/Users/e125754/etrobo/yagarto-4.6.2/bin/../lib/gcc/arm-none-eabi/4.6.2/thumb/libgcc.a(_thumb1_case_uhi.o)
                              ../../../nxtOSEK/ecrobot/../ecrobot/libecrobot.a(i2c.oram) (__gnu_thumb1_case_uhi)
/Users/e125754/etrobo/yagarto-4.6.2/bin/../lib/gcc/arm-none-eabi/4.6.2/thumb/libgcc.a(_udivsi3.o)
                              build/ecrobot_base.o (__aeabi_uidiv)
/Users/e125754/etrobo/yagarto-4.6.2/bin/../lib/gcc/arm-none-eabi/4.6.2/thumb/libgcc.a(_divsi3.o)
                              ../../../nxtOSEK/ecrobot/../ecrobot/libecrobot.a(uart.oram) (__aeabi_idiv)
/Users/e125754/etrobo/yagarto-4.6.2/bin/../lib/gcc/arm-none-eabi/4.6.2/thumb/libgcc.a(_dvmd_tls.o)
                              /Users/e125754/etrobo/yagarto-4.6.2/bin/../lib/gcc/arm-none-eabi/4.6.2/thumb/libgcc.a(_udivsi3.o) (__aeabi_idiv0)
/Users/e125754/etrobo/yagarto-4.6.2/bin/../lib/gcc/arm-none-eabi/4.6.2/thumb/libgcc.a(_arm_addsubdf3.o)
                              ../../../nxtOSEK/ecrobot/../ecrobot/libecrobot.a(colorsensor.o) (__aeabi_i2d)
/Users/e125754/etrobo/yagarto-4.6.2/bin/../lib/gcc/arm-none-eabi/4.6.2/thumb/libgcc.a(_arm_muldivdf3.o)
                              ../../../nxtOSEK/ecrobot/../ecrobot/libecrobot.a(colorsensor.o) (__aeabi_dmul)
/Users/e125754/etrobo/yagarto-4.6.2/bin/../lib/gcc/arm-none-eabi/4.6.2/thumb/libgcc.a(_arm_cmpdf2.o)
                              ../../../nxtOSEK/ecrobot/../ecrobot/libecrobot.a(colorsensor.o) (__aeabi_dcmpgt)
/Users/e125754/etrobo/yagarto-4.6.2/bin/../lib/gcc/arm-none-eabi/4.6.2/thumb/libgcc.a(_arm_addsubsf3.o)
                              ../../../nxtOSEK/ecrobot/../ecrobot/libnxtway_gs_balancer.a(balancer.o) (__aeabi_fsub)
/Users/e125754/etrobo/yagarto-4.6.2/bin/../lib/gcc/arm-none-eabi/4.6.2/thumb/libgcc.a(_arm_muldivsf3.o)
                              build/sample.o (__aeabi_fmul)
/Users/e125754/etrobo/yagarto-4.6.2/bin/../lib/gcc/arm-none-eabi/4.6.2/thumb/libgcc.a(_arm_cmpsf2.o)
                              ../../../nxtOSEK/ecrobot/../ecrobot/libnxtway_gs_balancer.a(balancer.o) (__aeabi_fcmple)
/Users/e125754/etrobo/yagarto-4.6.2/bin/../lib/gcc/arm-none-eabi/4.6.2/thumb/libgcc.a(_arm_fixsfsi.o)
                              build/sample.o (__aeabi_f2iz)
/Users/e125754/etrobo/yagarto-4.6.2/bin/../lib/gcc/arm-none-eabi/4.6.2/thumb/libgcc.a(_aeabi_ldivmod.o)
                              ../../../nxtOSEK/ecrobot/../ecrobot/libecrobot.a(sound.oram) (__aeabi_ldivmod)
/Users/e125754/etrobo/yagarto-4.6.2/bin/../lib/gcc/arm-none-eabi/4.6.2/thumb/libgcc.a(_muldi3.o)
                              ../../../nxtOSEK/ecrobot/../ecrobot/libecrobot.a(sound.oram) (__aeabi_lmul)
/Users/e125754/etrobo/yagarto-4.6.2/bin/../lib/gcc/arm-none-eabi/4.6.2/thumb/libgcc.a(bpabi.o)
                              /Users/e125754/etrobo/yagarto-4.6.2/bin/../lib/gcc/arm-none-eabi/4.6.2/thumb/libgcc.a(_aeabi_ldivmod.o) (__gnu_ldivmod_helper)
/Users/e125754/etrobo/yagarto-4.6.2/bin/../lib/gcc/arm-none-eabi/4.6.2/thumb/libgcc.a(unwind-arm.o)
                              /Users/e125754/etrobo/yagarto-4.6.2/bin/../lib/gcc/arm-none-eabi/4.6.2/thumb/libgcc.a(bpabi.o) (__aeabi_unwind_cpp_pr0)
/Users/e125754/etrobo/yagarto-4.6.2/bin/../lib/gcc/arm-none-eabi/4.6.2/thumb/libgcc.a(libunwind.o)
                              /Users/e125754/etrobo/yagarto-4.6.2/bin/../lib/gcc/arm-none-eabi/4.6.2/thumb/libgcc.a(unwind-arm.o) (restore_core_regs)
/Users/e125754/etrobo/yagarto-4.6.2/bin/../lib/gcc/arm-none-eabi/4.6.2/thumb/libgcc.a(pr-support.o)
                              /Users/e125754/etrobo/yagarto-4.6.2/bin/../lib/gcc/arm-none-eabi/4.6.2/thumb/libgcc.a(unwind-arm.o) (__gnu_unwind_execute)
/Users/e125754/etrobo/yagarto-4.6.2/bin/../lib/gcc/arm-none-eabi/4.6.2/thumb/libgcc.a(_divdi3.o)
                              /Users/e125754/etrobo/yagarto-4.6.2/bin/../lib/gcc/arm-none-eabi/4.6.2/thumb/libgcc.a(bpabi.o) (__divdi3)
/Users/e125754/etrobo/yagarto-4.6.2/bin/../lib/gcc/arm-none-eabi/4.6.2/thumb/libgcc.a(_udivdi3.o)
                              /Users/e125754/etrobo/yagarto-4.6.2/bin/../lib/gcc/arm-none-eabi/4.6.2/thumb/libgcc.a(bpabi.o) (__udivdi3)
/Users/e125754/etrobo/yagarto-4.6.2/bin/../lib/gcc/arm-none-eabi/4.6.2/thumb/libgcc.a(_clzsi2.o)
                              /Users/e125754/etrobo/yagarto-4.6.2/bin/../lib/gcc/arm-none-eabi/4.6.2/thumb/libgcc.a(_divdi3.o) (__clzsi2)
/Users/e125754/etrobo/yagarto-4.6.2/bin/../lib/gcc/arm-none-eabi/4.6.2/../../../../arm-none-eabi/lib/thumb/libc.a(lib_a-abort.o)
                              /Users/e125754/etrobo/yagarto-4.6.2/bin/../lib/gcc/arm-none-eabi/4.6.2/thumb/libgcc.a(unwind-arm.o) (abort)
/Users/e125754/etrobo/yagarto-4.6.2/bin/../lib/gcc/arm-none-eabi/4.6.2/../../../../arm-none-eabi/lib/thumb/libc.a(lib_a-cxa_finalize.o)
                              build/ecrobot_base.o (__cxa_finalize)
/Users/e125754/etrobo/yagarto-4.6.2/bin/../lib/gcc/arm-none-eabi/4.6.2/../../../../arm-none-eabi/lib/thumb/libc.a(lib_a-memcpy.o)
                              ../../../nxtOSEK/ecrobot/../ecrobot/libecrobot.a(udp.oram) (memcpy)
/Users/e125754/etrobo/yagarto-4.6.2/bin/../lib/gcc/arm-none-eabi/4.6.2/../../../../arm-none-eabi/lib/thumb/libc.a(lib_a-memset.o)
                              build/ecrobot_bluetooth.o (memset)
/Users/e125754/etrobo/yagarto-4.6.2/bin/../lib/gcc/arm-none-eabi/4.6.2/../../../../arm-none-eabi/lib/thumb/libc.a(lib_a-signal.o)
                              /Users/e125754/etrobo/yagarto-4.6.2/bin/../lib/gcc/arm-none-eabi/4.6.2/../../../../arm-none-eabi/lib/thumb/libc.a(lib_a-abort.o) (raise)
/Users/e125754/etrobo/yagarto-4.6.2/bin/../lib/gcc/arm-none-eabi/4.6.2/../../../../arm-none-eabi/lib/thumb/libc.a(lib_a-signalr.o)
                              /Users/e125754/etrobo/yagarto-4.6.2/bin/../lib/gcc/arm-none-eabi/4.6.2/../../../../arm-none-eabi/lib/thumb/libc.a(lib_a-signal.o) (_kill_r)
/Users/e125754/etrobo/yagarto-4.6.2/bin/../lib/gcc/arm-none-eabi/4.6.2/../../../../arm-none-eabi/lib/thumb/libc.a(lib_a-strcmp.o)
                              ../../../nxtOSEK/ecrobot/../ecrobot/libecrobot.a(flash_loader.oram) (strcmp)
/Users/e125754/etrobo/yagarto-4.6.2/bin/../lib/gcc/arm-none-eabi/4.6.2/../../../../arm-none-eabi/lib/thumb/libc.a(lib_a-strcpy.o)
                              build/ecrobot_base.o (strcpy)
/Users/e125754/etrobo/yagarto-4.6.2/bin/../lib/gcc/arm-none-eabi/4.6.2/../../../../arm-none-eabi/lib/thumb/libc.a(lib_a-strlen.o)
                              build/ecrobot_base.o (strlen)
/Users/e125754/etrobo/yagarto-4.6.2/bin/../lib/gcc/arm-none-eabi/4.6.2/../../../../arm-none-eabi/lib/thumb/libc.a(lib_a-strncpy.o)
                              build/ecrobot_bluetooth.o (strncpy)
/Users/e125754/etrobo/yagarto-4.6.2/bin/../lib/gcc/arm-none-eabi/4.6.2/../../../../arm-none-eabi/lib/thumb/libc.a(lib_a-__call_atexit.o)
                              /Users/e125754/etrobo/yagarto-4.6.2/bin/../lib/gcc/arm-none-eabi/4.6.2/../../../../arm-none-eabi/lib/thumb/libc.a(lib_a-cxa_finalize.o) (__call_exitprocs)
/Users/e125754/etrobo/yagarto-4.6.2/bin/../lib/gcc/arm-none-eabi/4.6.2/../../../../arm-none-eabi/lib/thumb/libc.a(lib_a-impure.o)
                              /Users/e125754/etrobo/yagarto-4.6.2/bin/../lib/gcc/arm-none-eabi/4.6.2/../../../../arm-none-eabi/lib/thumb/libc.a(lib_a-__call_atexit.o) (_global_impure_ptr)
/Users/e125754/etrobo/yagarto-4.6.2/bin/../lib/gcc/arm-none-eabi/4.6.2/../../../../arm-none-eabi/lib/thumb/libc.a(lib_a-mallocr.o)
                              /Users/e125754/etrobo/yagarto-4.6.2/bin/../lib/gcc/arm-none-eabi/4.6.2/../../../../arm-none-eabi/lib/thumb/libc.a(lib_a-signal.o) (_malloc_r)
/Users/e125754/etrobo/yagarto-4.6.2/bin/../lib/gcc/arm-none-eabi/4.6.2/../../../../arm-none-eabi/lib/thumb/libc.a(lib_a-mlock.o)
                              /Users/e125754/etrobo/yagarto-4.6.2/bin/../lib/gcc/arm-none-eabi/4.6.2/../../../../arm-none-eabi/lib/thumb/libc.a(lib_a-mallocr.o) (__malloc_lock)
/Users/e125754/etrobo/yagarto-4.6.2/bin/../lib/gcc/arm-none-eabi/4.6.2/../../../../arm-none-eabi/lib/thumb/libc.a(lib_a-reent.o)
                              /Users/e125754/etrobo/yagarto-4.6.2/bin/../lib/gcc/arm-none-eabi/4.6.2/../../../../arm-none-eabi/lib/thumb/libc.a(lib_a-signalr.o) (errno)
/Users/e125754/etrobo/yagarto-4.6.2/bin/../lib/gcc/arm-none-eabi/4.6.2/../../../../arm-none-eabi/lib/thumb/libc.a(lib_a-freer.o)
                              /Users/e125754/etrobo/yagarto-4.6.2/bin/../lib/gcc/arm-none-eabi/4.6.2/../../../../arm-none-eabi/lib/thumb/libc.a(lib_a-mallocr.o) (_free_r)

Allocating common symbols
Common symbol       size              file

tcb_waievt          0x4               build/./kernel_cfg.o
rescb_prevpri       0x1               build/./kernel_cfg.o
almcb_prev          0x1               build/./kernel_cfg.o
callevel            0x1               build/kernel/osctl.o
runtsk              0x1               build/kernel/task.o
tcb_lastres         0x1               build/./kernel_cfg.o
errno               0x4               /Users/e125754/etrobo/yagarto-4.6.2/bin/../lib/gcc/arm-none-eabi/4.6.2/../../../../arm-none-eabi/lib/thumb/libc.a(lib_a-reent.o)
runisr              0x1               build/kernel/interrupt.o
almcb_almval        0x4               build/./kernel_cfg.o
display_x           0x4               ../../../nxtOSEK/ecrobot/../ecrobot/libecrobot.a(display.oram)
_errorhook_svcid    0x1               build/kernel/osctl.o
tcxb_pc             0x4               build/./kernel_cfg.o
appmode             0x1               build/kernel/osctl.o
_errorhook_par1     0x4               build/kernel/osctl.o
schedtsk            0x1               build/kernel/task.o
tcb_next            0x1               build/./kernel_cfg.o
tcb_curpri          0x1               build/./kernel_cfg.o
tcb_tstat           0x1               build/./kernel_cfg.o
data_abort_pc       0x4               ../../../nxtOSEK/ecrobot/../ecrobot/libecrobot.a(data_abort.oram)
nextpri             0x1               build/kernel/task.o
isrcb_lastres       0x1               build/./kernel_cfg.o
cntcb_almque        0x1               build/./kernel_cfg.o
rx_buf              0x80              build/sample.o
rescb_prevres       0x1               build/./kernel_cfg.o
tcb_actcnt          0x1               build/./kernel_cfg.o
_errorhook_par3     0x4               build/kernel/osctl.o
tcb_curevt          0x4               build/./kernel_cfg.o
display_y           0x4               ../../../nxtOSEK/ecrobot/../ecrobot/libecrobot.a(display.oram)
sus_all_cnt         0x1               build/kernel/interrupt.o
almcb_cycle         0x4               build/./kernel_cfg.o
tcxb_sp             0x4               build/./kernel_cfg.o
uart                0x44              ../../../nxtOSEK/ecrobot/../ecrobot/libecrobot.a(uart.oram)
sample              0x31c             ../../../nxtOSEK/ecrobot/../ecrobot/libecrobot.a(sound.oram)
almcb_next          0x1               build/./kernel_cfg.o
_errorhook_par2     0x4               build/kernel/osctl.o
cntcb_curval        0x4               build/./kernel_cfg.o

Discarded input sections

 .text          0x00000000        0x0 build/kernel/alarm.o
 .data          0x00000000        0x0 build/kernel/alarm.o
 .bss           0x00000000        0x0 build/kernel/alarm.o
 .text.enqueue_alarm
                0x00000000       0x84 build/kernel/alarm.o
 .text.alarm_initialize
                0x00000000       0x94 build/kernel/alarm.o
 .text.GetAlarmBase
                0x00000000       0x78 build/kernel/alarm.o
 .text.GetAlarm
                0x00000000       0x94 build/kernel/alarm.o
 .text.SetRelAlarm
                0x00000000       0xd8 build/kernel/alarm.o
 .text.SetAbsAlarm
                0x00000000       0xe4 build/kernel/alarm.o
 .text.CancelAlarm
                0x00000000       0x8c build/kernel/alarm.o
 .text.SignalCounter
                0x00000000      0x120 build/kernel/alarm.o
 .text          0x00000000        0x0 build/kernel/event.o
 .data          0x00000000        0x0 build/kernel/event.o
 .bss           0x00000000        0x0 build/kernel/event.o
 .text.SetEvent
                0x00000000       0xa4 build/kernel/event.o
 .text.ClearEvent
                0x00000000       0x60 build/kernel/event.o
 .text.GetEvent
                0x00000000       0x7c build/kernel/event.o
 .text.WaitEvent
                0x00000000       0xa4 build/kernel/event.o
 .text          0x00000000        0x0 build/kernel/interrupt.o
 .data          0x00000000        0x0 build/kernel/interrupt.o
 .bss           0x00000000        0x0 build/kernel/interrupt.o
 .text.interrupt_initialize
                0x00000000       0x3c build/kernel/interrupt.o
 .text.DisableAllInterrupts
                0x00000000        0xc build/kernel/interrupt.o
 .text.EnableAllInterrupts
                0x00000000        0xc build/kernel/interrupt.o
 .text.SuspendAllInterrupts
                0x00000000       0x48 build/kernel/interrupt.o
 .text.ResumeAllInterrupts
                0x00000000       0x44 build/kernel/interrupt.o
 .text.SuspendOSInterrupts
                0x00000000       0x48 build/kernel/interrupt.o
 .text.ResumeOSInterrupts
                0x00000000       0x40 build/kernel/interrupt.o
 .bss.saved_callevel
                0x00000000        0x1 build/kernel/interrupt.o
 .bss.sus_os_cnt
                0x00000000        0x1 build/kernel/interrupt.o
 .bss.saved_ipl
                0x00000000        0x1 build/kernel/interrupt.o
 .text          0x00000000        0x0 build/kernel/osctl.o
 .data          0x00000000        0x0 build/kernel/osctl.o
 .bss           0x00000000        0x0 build/kernel/osctl.o
 .text.GetActiveApplicationMode
                0x00000000        0xc build/kernel/osctl.o
 .text.ShutdownOS
                0x00000000       0x48 build/kernel/osctl.o
 .text.call_errorhook
                0x00000000       0x6c build/kernel/osctl.o
 .text          0x00000000        0x0 build/kernel/resource.o
 .data          0x00000000        0x0 build/kernel/resource.o
 .bss           0x00000000        0x0 build/kernel/resource.o
 .text.resource_initialize
                0x00000000       0x28 build/kernel/resource.o
 .text.GetResource
                0x00000000       0xd4 build/kernel/resource.o
 .text.ReleaseResource
                0x00000000       0xf0 build/kernel/resource.o
 .text          0x00000000        0x0 build/kernel/task.o
 .data          0x00000000        0x0 build/kernel/task.o
 .bss           0x00000000        0x0 build/kernel/task.o
 .text.search_schedtsk
                0x00000000       0x84 build/kernel/task.o
 .text.preempt  0x00000000       0x4c build/kernel/task.o
 .rodata.search_table.1069
                0x00000000        0xf build/kernel/task.o
 .text          0x00000000        0x0 build/kernel/task_manage.o
 .data          0x00000000        0x0 build/kernel/task_manage.o
 .bss           0x00000000        0x0 build/kernel/task_manage.o
 .text.ActivateTask
                0x00000000       0x88 build/kernel/task_manage.o
 .text.TerminateTask
                0x00000000       0x70 build/kernel/task_manage.o
 .text.ChainTask
                0x00000000       0xc4 build/kernel/task_manage.o
 .text.Schedule
                0x00000000       0x78 build/kernel/task_manage.o
 .text.GetTaskID
                0x00000000       0x3c build/kernel/task_manage.o
 .text.GetTaskState
                0x00000000       0x6c build/kernel/task_manage.o
 .text          0x00000000        0x0 build/config/at91sam7s-gnu/cpu_config.o
 .data          0x00000000        0x0 build/config/at91sam7s-gnu/cpu_config.o
 .bss           0x00000000        0x0 build/config/at91sam7s-gnu/cpu_config.o
 .text.cpu_terminate
                0x00000000        0x2 build/config/at91sam7s-gnu/cpu_config.o
 .text          0x00000000        0x0 build/config/at91sam7s-gnu/lego_nxt/sys_config.o
 .data          0x00000000        0x0 build/config/at91sam7s-gnu/lego_nxt/sys_config.o
 .bss           0x00000000        0x0 build/config/at91sam7s-gnu/lego_nxt/sys_config.o
 .text.sys_exit
                0x00000000        0x2 build/config/at91sam7s-gnu/lego_nxt/sys_config.o
 .text          0x00000000        0x0 build/./kernel_cfg.o
 .data          0x00000000        0x0 build/./kernel_cfg.o
 .bss           0x00000000        0x0 build/./kernel_cfg.o
 .rodata.alminib_almval
                0x00000000        0x4 build/./kernel_cfg.o
 .rodata.tnum_resource
                0x00000000        0x1 build/./kernel_cfg.o
 .rodata.tinib_maxact
                0x00000000        0x1 build/./kernel_cfg.o
 .rodata.TaskMain
                0x00000000        0x1 build/./kernel_cfg.o
 .rodata.cntinib_tickbase
                0x00000000        0x4 build/./kernel_cfg.o
 .rodata.alminib_cntid
                0x00000000        0x1 build/./kernel_cfg.o
 .rodata.cntinib_maxval
                0x00000000        0x4 build/./kernel_cfg.o
 .rodata.isrinib_intpri
                0x00000000        0x1 build/./kernel_cfg.o
 .rodata.alminib_cycle
                0x00000000        0x4 build/./kernel_cfg.o
 .rodata.cntinib_maxval2
                0x00000000        0x4 build/./kernel_cfg.o
 .rodata.tnum_counter
                0x00000000        0x1 build/./kernel_cfg.o
 .rodata.tnum_isr2
                0x00000000        0x1 build/./kernel_cfg.o
 .rodata.ipl_maxisr2
                0x00000000        0x1 build/./kernel_cfg.o
 .rodata.tnum_alarm
                0x00000000        0x1 build/./kernel_cfg.o
 .rodata.cntinib_mincyc
                0x00000000        0x4 build/./kernel_cfg.o
 .rodata.resinib_ceilpri
                0x00000000        0x1 build/./kernel_cfg.o
 .rodata.alminib_cback
                0x00000000        0x4 build/./kernel_cfg.o
 .rodata.alminib_autosta
                0x00000000        0x1 build/./kernel_cfg.o
 .text          0x00000000        0x0 build/syscalls.o
 .data          0x00000000        0x0 build/syscalls.o
 .bss           0x00000000        0x0 build/syscalls.o
 .text._sbrk_r  0x00000000       0x20 build/syscalls.o
 .bss.heap_ptr  0x00000000        0x4 build/syscalls.o
 .text          0x00000000        0x0 build/ecrobot_bluetooth.o
 .data          0x00000000        0x0 build/ecrobot_bluetooth.o
 .bss           0x00000000        0x0 build/ecrobot_bluetooth.o
 .text.ecrobot_get_bt_device_name
                0x00000000       0x6c build/ecrobot_bluetooth.o
 .text.ecrobot_get_bt_signal_strength
                0x00000000       0x78 build/ecrobot_bluetooth.o
 .text.ecrobot_set_bt_factory_settings
                0x00000000       0x30 build/ecrobot_bluetooth.o
 .text.ecrobot_get_bt_status
                0x00000000        0xc build/ecrobot_bluetooth.o
 .text.ecrobot_init_bt_master
                0x00000000       0xdc build/ecrobot_bluetooth.o
 .text.ecrobot_init_bt_connection
                0x00000000       0x14 build/ecrobot_bluetooth.o
 .text.ecrobot_send_bt_packet
                0x00000000       0x54 build/ecrobot_bluetooth.o
 .text.ecrobot_read_bt_packet
                0x00000000       0x48 build/ecrobot_bluetooth.o
 .rodata.str1.1
                0x00000000        0x7 build/ecrobot_bluetooth.o
 .text          0x00000000        0x0 build/ecrobot_base.o
 .data          0x00000000        0x0 build/ecrobot_base.o
 .bss           0x00000000        0x0 build/ecrobot_base.o
 .text          0x00000000        0x0 build/ecrobot.o
 .data          0x00000000        0x0 build/ecrobot.o
 .bss           0x00000000        0x0 build/ecrobot.o
 .text          0x00000000        0x0 build/balancer_param.o
 .data          0x00000000        0x0 build/balancer_param.o
 .bss           0x00000000        0x0 build/balancer_param.o
 .text          0x00000000        0x0 build/sample.o
 .data          0x00000000        0x0 build/sample.o
 .bss           0x00000000        0x0 build/sample.o
 .text          0x00000000        0x0 build/syslib/at91sam7s-gnu/lego_nxt/hw_sys_timer.oram
 .data          0x00000000        0x0 build/syslib/at91sam7s-gnu/lego_nxt/hw_sys_timer.oram
 .bss           0x00000000        0x0 build/syslib/at91sam7s-gnu/lego_nxt/hw_sys_timer.oram
 .text          0x00000000       0x38 build/nxtvm/platform/nxt/vectors.o
 .data          0x00000000        0x0 build/nxtvm/platform/nxt/vectors.o
 .bss           0x00000000        0x0 build/nxtvm/platform/nxt/vectors.o
 .text          0x00000000       0x20 build/config/at91sam7s-gnu/debug.o
 .data          0x00000000        0x0 build/config/at91sam7s-gnu/debug.o
 .bss           0x00000000        0x0 build/config/at91sam7s-gnu/debug.o
 .text          0x00000000        0x0 build/config/at91sam7s-gnu/lego_nxt/sys_support.o
 .data          0x00000000        0x0 build/config/at91sam7s-gnu/lego_nxt/sys_support.o
 .bss           0x00000000        0x0 build/config/at91sam7s-gnu/lego_nxt/sys_support.o
 .data          0x00000000        0x0 build/nxt_binary_header.o
 .bss           0x00000000        0x0 build/nxt_binary_header.o
 .data          0x00000000        0x0 build/nxt_entry_point.o
 .bss           0x00000000        0x0 build/nxt_entry_point.o
 .data          0x00000000        0x0 build/ecrobot_init.o
 .bss           0x00000000        0x0 build/ecrobot_init.o
 .data          0x00000000        0x0 build/config/at91sam7s-gnu/cpu_support.oram
 .bss           0x00000000        0x0 build/config/at91sam7s-gnu/cpu_support.oram
 .data          0x00000000        0x0 build/config/at91sam7s-gnu/irq.oram
 .bss           0x00000000        0x0 build/config/at91sam7s-gnu/irq.oram
 .text          0x00000000        0x0 ../../../nxtOSEK/ecrobot/../ecrobot/libecrobot.a(ecrobot_HiTechnic.o)
 .data          0x00000000        0x0 ../../../nxtOSEK/ecrobot/../ecrobot/libecrobot.a(ecrobot_HiTechnic.o)
 .bss           0x00000000        0x0 ../../../nxtOSEK/ecrobot/../ecrobot/libecrobot.a(ecrobot_HiTechnic.o)
 .text.ecrobot_init_accel_sensor
                0x00000000        0xe ../../../nxtOSEK/ecrobot/../ecrobot/libecrobot.a(ecrobot_HiTechnic.o)
 .text.ecrobot_get_accel_sensor
                0x00000000       0x6c ../../../nxtOSEK/ecrobot/../ecrobot/libecrobot.a(ecrobot_HiTechnic.o)
 .text.ecrobot_term_accel_sensor
                0x00000000        0xc ../../../nxtOSEK/ecrobot/../ecrobot/libecrobot.a(ecrobot_HiTechnic.o)
 .text.ecrobot_init_ir_seeker
                0x00000000        0xe ../../../nxtOSEK/ecrobot/../ecrobot/libecrobot.a(ecrobot_HiTechnic.o)
 .text.ecrobot_get_ir_seeker
                0x00000000       0x40 ../../../nxtOSEK/ecrobot/../ecrobot/libecrobot.a(ecrobot_HiTechnic.o)
 .text.ecrobot_term_ir_seeker
                0x00000000        0xc ../../../nxtOSEK/ecrobot/../ecrobot/libecrobot.a(ecrobot_HiTechnic.o)
 .text.ecrobot_init_color_sensor
                0x00000000        0xe ../../../nxtOSEK/ecrobot/../ecrobot/libecrobot.a(ecrobot_HiTechnic.o)
 .text.ecrobot_cal_color_sensor
                0x00000000       0x3c ../../../nxtOSEK/ecrobot/../ecrobot/libecrobot.a(ecrobot_HiTechnic.o)
 .text.ecrobot_get_color_sensor
                0x00000000       0x5c ../../../nxtOSEK/ecrobot/../ecrobot/libecrobot.a(ecrobot_HiTechnic.o)
 .text.ecrobot_term_color_sensor
                0x00000000        0xc ../../../nxtOSEK/ecrobot/../ecrobot/libecrobot.a(ecrobot_HiTechnic.o)
 .text.ecrobot_init_compass_sensor
                0x00000000        0xe ../../../nxtOSEK/ecrobot/../ecrobot/libecrobot.a(ecrobot_HiTechnic.o)
 .text.ecrobot_cal_compass_sensor
                0x00000000       0x86 ../../../nxtOSEK/ecrobot/../ecrobot/libecrobot.a(ecrobot_HiTechnic.o)
 .text.ecrobot_get_compass_sensor
                0x00000000       0x40 ../../../nxtOSEK/ecrobot/../ecrobot/libecrobot.a(ecrobot_HiTechnic.o)
 .text.ecrobot_term_compass_sensor
                0x00000000        0xc ../../../nxtOSEK/ecrobot/../ecrobot/libecrobot.a(ecrobot_HiTechnic.o)
 .text.ecrobot_init_prototype_sensor
                0x00000000       0x78 ../../../nxtOSEK/ecrobot/../ecrobot/libecrobot.a(ecrobot_HiTechnic.o)
 .text.ecrobot_get_prototype_analog_sensor
                0x00000000       0x4c ../../../nxtOSEK/ecrobot/../ecrobot/libecrobot.a(ecrobot_HiTechnic.o)
 .text.ecrobot_get_prototype_digital_sensor
                0x00000000       0x40 ../../../nxtOSEK/ecrobot/../ecrobot/libecrobot.a(ecrobot_HiTechnic.o)
 .text.ecrobot_get_prototype_sensor
                0x00000000       0x84 ../../../nxtOSEK/ecrobot/../ecrobot/libecrobot.a(ecrobot_HiTechnic.o)
 .text.ecrobot_send_prototype_digital_sensor
                0x00000000       0x3c ../../../nxtOSEK/ecrobot/../ecrobot/libecrobot.a(ecrobot_HiTechnic.o)
 .text.ecrobot_term_prototype_sensor
                0x00000000        0xc ../../../nxtOSEK/ecrobot/../ecrobot/libecrobot.a(ecrobot_HiTechnic.o)
 .text.ecrobot_init_tetrix
                0x00000000        0xe ../../../nxtOSEK/ecrobot/../ecrobot/libecrobot.a(ecrobot_HiTechnic.o)
 .text.ecrobot_tetrix_motors
                0x00000000       0x30 ../../../nxtOSEK/ecrobot/../ecrobot/libecrobot.a(ecrobot_HiTechnic.o)
 .text.ecrobot_tetrix_servos
                0x00000000       0x5c ../../../nxtOSEK/ecrobot/../ecrobot/libecrobot.a(ecrobot_HiTechnic.o)
 .text.ecrobot_tetrix_battery
                0x00000000       0x2c ../../../nxtOSEK/ecrobot/../ecrobot/libecrobot.a(ecrobot_HiTechnic.o)
 .text.ecrobot_term_tetrix
                0x00000000        0xc ../../../nxtOSEK/ecrobot/../ecrobot/libecrobot.a(ecrobot_HiTechnic.o)
 .bss.data.2248
                0x00000000       0x18 ../../../nxtOSEK/ecrobot/../ecrobot/libecrobot.a(ecrobot_HiTechnic.o)
 .bss.data.2305
                0x00000000       0x28 ../../../nxtOSEK/ecrobot/../ecrobot/libecrobot.a(ecrobot_HiTechnic.o)
 .bss.data.2312
                0x00000000        0x4 ../../../nxtOSEK/ecrobot/../ecrobot/libecrobot.a(ecrobot_HiTechnic.o)
 .bss.buf.2363  0x00000000        0x2 ../../../nxtOSEK/ecrobot/../ecrobot/libecrobot.a(ecrobot_HiTechnic.o)
 .bss.data.2320
                0x00000000       0x2c ../../../nxtOSEK/ecrobot/../ecrobot/libecrobot.a(ecrobot_HiTechnic.o)
 .bss.data.2267
                0x00000000       0x38 ../../../nxtOSEK/ecrobot/../ecrobot/libecrobot.a(ecrobot_HiTechnic.o)
 .bss.buf.2345  0x00000000        0x4 ../../../nxtOSEK/ecrobot/../ecrobot/libecrobot.a(ecrobot_HiTechnic.o)
 .bss.data.2281
                0x00000000       0x14 ../../../nxtOSEK/ecrobot/../ecrobot/libecrobot.a(ecrobot_HiTechnic.o)
 .bss.buf.2358  0x00000000        0x8 ../../../nxtOSEK/ecrobot/../ecrobot/libecrobot.a(ecrobot_HiTechnic.o)
 .bss.digitalDir
                0x00000000        0x1 ../../../nxtOSEK/ecrobot/../ecrobot/libecrobot.a(ecrobot_HiTechnic.o)
 .bss.data.2233
                0x00000000       0x18 ../../../nxtOSEK/ecrobot/../ecrobot/libecrobot.a(ecrobot_HiTechnic.o)
 .text          0x00000000        0x0 ../../../nxtOSEK/ecrobot/../ecrobot/libecrobot.a(ecrobot_interface.o)
 .data          0x00000000        0x0 ../../../nxtOSEK/ecrobot/../ecrobot/libecrobot.a(ecrobot_interface.o)
 .bss           0x00000000        0x0 ../../../nxtOSEK/ecrobot/../ecrobot/libecrobot.a(ecrobot_interface.o)
 .text.getDistance
                0x00000000       0x1c ../../../nxtOSEK/ecrobot/../ecrobot/libecrobot.a(ecrobot_interface.o)
 .text.ecrobot_set_motor_speed
                0x00000000        0xe ../../../nxtOSEK/ecrobot/../ecrobot/libecrobot.a(ecrobot_interface.o)
 .text.ecrobot_set_motor_mode_speed
                0x00000000       0x12 ../../../nxtOSEK/ecrobot/../ecrobot/libecrobot.a(ecrobot_interface.o)
 .text.ecrobot_get_motor_rev
                0x00000000        0xc ../../../nxtOSEK/ecrobot/../ecrobot/libecrobot.a(ecrobot_interface.o)
 .text.ecrobot_set_motor_rev
                0x00000000        0xc ../../../nxtOSEK/ecrobot/../ecrobot/libecrobot.a(ecrobot_interface.o)
 .text.ecrobot_get_touch_sensor
                0x00000000       0x1c ../../../nxtOSEK/ecrobot/../ecrobot/libecrobot.a(ecrobot_interface.o)
 .text.ecrobot_get_sound_sensor
                0x00000000       0x10 ../../../nxtOSEK/ecrobot/../ecrobot/libecrobot.a(ecrobot_interface.o)
 .text.ecrobot_init_i2c
                0x00000000       0x20 ../../../nxtOSEK/ecrobot/../ecrobot/libecrobot.a(ecrobot_interface.o)
 .text.ecrobot_wait_i2c_ready
                0x00000000       0x30 ../../../nxtOSEK/ecrobot/../ecrobot/libecrobot.a(ecrobot_interface.o)
 .text.ecrobot_send_i2c
                0x00000000       0x32 ../../../nxtOSEK/ecrobot/../ecrobot/libecrobot.a(ecrobot_interface.o)
 .text.ecrobot_read_i2c
                0x00000000       0x34 ../../../nxtOSEK/ecrobot/../ecrobot/libecrobot.a(ecrobot_interface.o)
 .text.ecrobot_term_i2c
                0x00000000        0xc ../../../nxtOSEK/ecrobot/../ecrobot/libecrobot.a(ecrobot_interface.o)
 .text.ecrobot_init_sonar_sensor
                0x00000000        0xe ../../../nxtOSEK/ecrobot/../ecrobot/libecrobot.a(ecrobot_interface.o)
 .text.ecrobot_get_sonar_sensor
                0x00000000       0x44 ../../../nxtOSEK/ecrobot/../ecrobot/libecrobot.a(ecrobot_interface.o)
 .text.ecrobot_term_sonar_sensor
                0x00000000       0x20 ../../../nxtOSEK/ecrobot/../ecrobot/libecrobot.a(ecrobot_interface.o)
 .text.ecrobot_process_bg_nxtcolorsensor
                0x00000000       0x8c ../../../nxtOSEK/ecrobot/../ecrobot/libecrobot.a(ecrobot_interface.o)
 .text.ecrobot_set_nxtcolorsensor
                0x00000000       0x38 ../../../nxtOSEK/ecrobot/../ecrobot/libecrobot.a(ecrobot_interface.o)
 .text.ecrobot_init_nxtcolorsensor
                0x00000000       0x28 ../../../nxtOSEK/ecrobot/../ecrobot/libecrobot.a(ecrobot_interface.o)
 .text.ecrobot_get_nxtcolorsensor_mode
                0x00000000       0x14 ../../../nxtOSEK/ecrobot/../ecrobot/libecrobot.a(ecrobot_interface.o)
 .text.ecrobot_get_nxtcolorsensor_light
                0x00000000       0x10 ../../../nxtOSEK/ecrobot/../ecrobot/libecrobot.a(ecrobot_interface.o)
 .text.ecrobot_get_nxtcolorsensor_id
                0x00000000       0x20 ../../../nxtOSEK/ecrobot/../ecrobot/libecrobot.a(ecrobot_interface.o)
 .text.ecrobot_get_nxtcolorsensor_rgb
                0x00000000       0x1c ../../../nxtOSEK/ecrobot/../ecrobot/libecrobot.a(ecrobot_interface.o)
 .text.ecrobot_term_nxtcolorsensor
                0x00000000        0xc ../../../nxtOSEK/ecrobot/../ecrobot/libecrobot.a(ecrobot_interface.o)
 .text.ecrobot_set_RCX_power_source
                0x00000000       0x1c ../../../nxtOSEK/ecrobot/../ecrobot/libecrobot.a(ecrobot_interface.o)
 .text.ecrobot_term_RCX_power_source
                0x00000000        0xe ../../../nxtOSEK/ecrobot/../ecrobot/libecrobot.a(ecrobot_interface.o)
 .text.ecrobot_get_RCX_sensor
                0x00000000       0x10 ../../../nxtOSEK/ecrobot/../ecrobot/libecrobot.a(ecrobot_interface.o)
 .text.ecrobot_get_RCX_touch_sensor
                0x00000000       0x1c ../../../nxtOSEK/ecrobot/../ecrobot/libecrobot.a(ecrobot_interface.o)
 .text.ecrobot_get_systick_ms
                0x00000000        0xc ../../../nxtOSEK/ecrobot/../ecrobot/libecrobot.a(ecrobot_interface.o)
 .text.ecrobot_is_ENTER_button_pressed
                0x00000000       0x10 ../../../nxtOSEK/ecrobot/../ecrobot/libecrobot.a(ecrobot_interface.o)
 .text.ecrobot_is_RUN_button_pressed
                0x00000000       0x10 ../../../nxtOSEK/ecrobot/../ecrobot/libecrobot.a(ecrobot_interface.o)
 .text.get_device_status
                0x00000000        0xc ../../../nxtOSEK/ecrobot/../ecrobot/libecrobot.a(ecrobot_interface.o)
 .text.ecrobot_restart_NXT
                0x00000000        0xc ../../../nxtOSEK/ecrobot/../ecrobot/libecrobot.a(ecrobot_interface.o)
 .text.ecrobot_shutdown_NXT
                0x00000000        0xc ../../../nxtOSEK/ecrobot/../ecrobot/libecrobot.a(ecrobot_interface.o)
 .text.ecrobot_bt_data_logger
                0x00000000       0x74 ../../../nxtOSEK/ecrobot/../ecrobot/libecrobot.a(ecrobot_interface.o)
 .text.ecrobot_bt_adc_data_logger
                0x00000000       0x7c ../../../nxtOSEK/ecrobot/../ecrobot/libecrobot.a(ecrobot_interface.o)
 .text.ecrobot_show_int
                0x00000000       0x30 ../../../nxtOSEK/ecrobot/../ecrobot/libecrobot.a(ecrobot_interface.o)
 .text.ecrobot_debug
                0x00000000       0x30 ../../../nxtOSEK/ecrobot/../ecrobot/libecrobot.a(ecrobot_interface.o)
 .text.ecrobot_debug1
                0x00000000       0x68 ../../../nxtOSEK/ecrobot/../ecrobot/libecrobot.a(ecrobot_interface.o)
 .text.ecrobot_debug2
                0x00000000       0x68 ../../../nxtOSEK/ecrobot/../ecrobot/libecrobot.a(ecrobot_interface.o)
 .text.ecrobot_status_monitor
                0x00000000      0x138 ../../../nxtOSEK/ecrobot/../ecrobot/libecrobot.a(ecrobot_interface.o)
 .text.ecrobot_adc_data_monitor
                0x00000000      0x138 ../../../nxtOSEK/ecrobot/../ecrobot/libecrobot.a(ecrobot_interface.o)
 .text.ecrobot_sint_var_monitor
                0x00000000       0x36 ../../../nxtOSEK/ecrobot/../ecrobot/libecrobot.a(ecrobot_interface.o)
 .text.ecrobot_sound_tone
                0x00000000        0xe ../../../nxtOSEK/ecrobot/../ecrobot/libecrobot.a(ecrobot_interface.o)
 .text.ecrobot_sound_wav
                0x00000000      0x1d4 ../../../nxtOSEK/ecrobot/../ecrobot/libecrobot.a(ecrobot_interface.o)
 .data.distance_state
                0x00000000       0x10 ../../../nxtOSEK/ecrobot/../ecrobot/libecrobot.a(ecrobot_interface.o)
 .bss.adc       0x00000000        0x8 ../../../nxtOSEK/ecrobot/../ecrobot/libecrobot.a(ecrobot_interface.o)
 .bss.sensor_data
                0x00000000       0x38 ../../../nxtOSEK/ecrobot/../ecrobot/libecrobot.a(ecrobot_interface.o)
 .rodata.NXT_COLORSENSOR_PROTOCOLS
                0x00000000        0x7 ../../../nxtOSEK/ecrobot/../ecrobot/libecrobot.a(ecrobot_interface.o)
 .rodata.str1.1
                0x00000000       0x6d ../../../nxtOSEK/ecrobot/../ecrobot/libecrobot.a(ecrobot_interface.o)
 .bss.data.2842
                0x00000000        0x4 ../../../nxtOSEK/ecrobot/../ecrobot/libecrobot.a(ecrobot_interface.o)
 .rodata.CSWTCH.26
                0x00000000        0x8 ../../../nxtOSEK/ecrobot/../ecrobot/libecrobot.a(ecrobot_interface.o)
 .text          0x00000000        0x0 ../../../nxtOSEK/ecrobot/../ecrobot/libecrobot.a(colorsensor.o)
 .data          0x00000000        0x0 ../../../nxtOSEK/ecrobot/../ecrobot/libecrobot.a(colorsensor.o)
 .bss           0x00000000        0x0 ../../../nxtOSEK/ecrobot/../ecrobot/libecrobot.a(colorsensor.o)
 .text.colorsensor_recv
                0x00000000       0x62 ../../../nxtOSEK/ecrobot/../ecrobot/libecrobot.a(colorsensor.o)
 .text.colorsensor_init
                0x00000000      0x100 ../../../nxtOSEK/ecrobot/../ecrobot/libecrobot.a(colorsensor.o)
 .text.colorsensor_term
                0x00000000       0x68 ../../../nxtOSEK/ecrobot/../ecrobot/libecrobot.a(colorsensor.o)
 .text.colorsensor_light_get
                0x00000000       0x40 ../../../nxtOSEK/ecrobot/../ecrobot/libecrobot.a(colorsensor.o)
 .text.colorsensor_light_full
                0x00000000       0xa0 ../../../nxtOSEK/ecrobot/../ecrobot/libecrobot.a(colorsensor.o)
 .text.colorsensor_rgb_get
                0x00000000       0x14 ../../../nxtOSEK/ecrobot/../ecrobot/libecrobot.a(colorsensor.o)
 .text.colorsensor_color_get
                0x00000000      0x120 ../../../nxtOSEK/ecrobot/../ecrobot/libecrobot.a(colorsensor.o)
 .bss.rgb_buf   0x00000000        0xc ../../../nxtOSEK/ecrobot/../ecrobot/libecrobot.a(colorsensor.o)
 .text          0x00000000        0x0 ../../../nxtOSEK/ecrobot/../ecrobot/libecrobot.a(osek_hook.o)
 .data          0x00000000        0x0 ../../../nxtOSEK/ecrobot/../ecrobot/libecrobot.a(osek_hook.o)
 .bss           0x00000000        0x0 ../../../nxtOSEK/ecrobot/../ecrobot/libecrobot.a(osek_hook.o)
 .text.ErrorHook
                0x00000000        0x2 ../../../nxtOSEK/ecrobot/../ecrobot/libecrobot.a(osek_hook.o)
 .text.ShutdownHook
                0x00000000        0x2 ../../../nxtOSEK/ecrobot/../ecrobot/libecrobot.a(osek_hook.o)
 .text          0x00000000        0x0 ../../../nxtOSEK/ecrobot/../ecrobot/libecrobot.a(uart.oram)
 .data          0x00000000        0x0 ../../../nxtOSEK/ecrobot/../ecrobot/libecrobot.a(uart.oram)
 .bss           0x00000000        0x0 ../../../nxtOSEK/ecrobot/../ecrobot/libecrobot.a(uart.oram)
 .text.uart_get_byte
                0x00000000       0x34 ../../../nxtOSEK/ecrobot/../ecrobot/libecrobot.a(uart.oram)
 .text.uart_put_byte
                0x00000000       0x44 ../../../nxtOSEK/ecrobot/../ecrobot/libecrobot.a(uart.oram)
 .text.uart_put_str
                0x00000000       0x22 ../../../nxtOSEK/ecrobot/../ecrobot/libecrobot.a(uart.oram)
 .text.uart_set_break
                0x00000000       0x20 ../../../nxtOSEK/ecrobot/../ecrobot/libecrobot.a(uart.oram)
 .text.uart_clear_break
                0x00000000       0x20 ../../../nxtOSEK/ecrobot/../ecrobot/libecrobot.a(uart.oram)
 .text.uart_CheckBreak
                0x00000000        0x4 ../../../nxtOSEK/ecrobot/../ecrobot/libecrobot.a(uart.oram)
 .text.uart_init
                0x00000000      0x154 ../../../nxtOSEK/ecrobot/../ecrobot/libecrobot.a(uart.oram)
 .text.uart_close
                0x00000000        0x2 ../../../nxtOSEK/ecrobot/../ecrobot/libecrobot.a(uart.oram)
 .text.uart_us0_init_irq
                0x00000000       0x38 ../../../nxtOSEK/ecrobot/../ecrobot/libecrobot.a(uart.oram)
 .text.uart_us0_interrupts_enable
                0x00000000        0xc ../../../nxtOSEK/ecrobot/../ecrobot/libecrobot.a(uart.oram)
 .rodata.CSWTCH.6
                0x00000000        0x2 ../../../nxtOSEK/ecrobot/../ecrobot/libecrobot.a(uart.oram)
 .bss.tx_buffer
                0x00000000       0x40 ../../../nxtOSEK/ecrobot/../ecrobot/libecrobot.a(uart.oram)
 .bss.rx_buffer
                0x00000000       0x20 ../../../nxtOSEK/ecrobot/../ecrobot/libecrobot.a(uart.oram)
 .text          0x00000000        0x0 ../../../nxtOSEK/ecrobot/../ecrobot/libecrobot.a(systick.oram)
 .data          0x00000000        0x0 ../../../nxtOSEK/ecrobot/../ecrobot/libecrobot.a(systick.oram)
 .bss           0x00000000        0x0 ../../../nxtOSEK/ecrobot/../ecrobot/libecrobot.a(systick.oram)
 .text.systick_test
                0x00000000       0x18 ../../../nxtOSEK/ecrobot/../ecrobot/libecrobot.a(systick.oram)
 .bss.test_counter
                0x00000000        0x4 ../../../nxtOSEK/ecrobot/../ecrobot/libecrobot.a(systick.oram)
 .text          0x00000000        0x0 ../../../nxtOSEK/ecrobot/../ecrobot/libecrobot.a(byte_fifo.oram)
 .data          0x00000000        0x0 ../../../nxtOSEK/ecrobot/../ecrobot/libecrobot.a(byte_fifo.oram)
 .bss           0x00000000        0x0 ../../../nxtOSEK/ecrobot/../ecrobot/libecrobot.a(byte_fifo.oram)
 .text.byte_fifo_clear
                0x00000000        0xc ../../../nxtOSEK/ecrobot/../ecrobot/libecrobot.a(byte_fifo.oram)
 .text.byte_fifo_init
                0x00000000       0x12 ../../../nxtOSEK/ecrobot/../ecrobot/libecrobot.a(byte_fifo.oram)
 .text          0x00000000        0x0 ../../../nxtOSEK/ecrobot/../ecrobot/libecrobot.a(aic.oram)
 .data          0x00000000        0x0 ../../../nxtOSEK/ecrobot/../ecrobot/libecrobot.a(aic.oram)
 .bss           0x00000000        0x0 ../../../nxtOSEK/ecrobot/../ecrobot/libecrobot.a(aic.oram)
 .text          0x00000000        0x0 ../../../nxtOSEK/ecrobot/../ecrobot/libecrobot.a(udp.oram)
 .data          0x00000000        0x0 ../../../nxtOSEK/ecrobot/../ecrobot/libecrobot.a(udp.oram)
 .bss           0x00000000        0x0 ../../../nxtOSEK/ecrobot/../ecrobot/libecrobot.a(udp.oram)
 .text.udp_reset
                0x00000000       0xc0 ../../../nxtOSEK/ecrobot/../ecrobot/libecrobot.a(udp.oram)
 .text.udp_read
                0x00000000       0xf4 ../../../nxtOSEK/ecrobot/../ecrobot/libecrobot.a(udp.oram)
 .text.udp_write
                0x00000000       0x9c ../../../nxtOSEK/ecrobot/../ecrobot/libecrobot.a(udp.oram)
 .text.udp_status
                0x00000000       0x58 ../../../nxtOSEK/ecrobot/../ecrobot/libecrobot.a(udp.oram)
 .text.udp_enable
                0x00000000       0x6c ../../../nxtOSEK/ecrobot/../ecrobot/libecrobot.a(udp.oram)
 .text.udp_disable
                0x00000000       0x40 ../../../nxtOSEK/ecrobot/../ecrobot/libecrobot.a(udp.oram)
 .text.udp_init
                0x00000000       0x1c ../../../nxtOSEK/ecrobot/../ecrobot/libecrobot.a(udp.oram)
 .text.udp_set_serialno
                0x00000000       0x20 ../../../nxtOSEK/ecrobot/../ecrobot/libecrobot.a(udp.oram)
 .text.udp_set_name
                0x00000000       0x28 ../../../nxtOSEK/ecrobot/../ecrobot/libecrobot.a(udp.oram)
 .text          0x00000000        0x0 ../../../nxtOSEK/ecrobot/../ecrobot/libecrobot.a(twi.oram)
 .data          0x00000000        0x0 ../../../nxtOSEK/ecrobot/../ecrobot/libecrobot.a(twi.oram)
 .bss           0x00000000        0x0 ../../../nxtOSEK/ecrobot/../ecrobot/libecrobot.a(twi.oram)
 .text          0x00000000        0x0 ../../../nxtOSEK/ecrobot/../ecrobot/libecrobot.a(nxt_spi.oram)
 .data          0x00000000        0x0 ../../../nxtOSEK/ecrobot/../ecrobot/libecrobot.a(nxt_spi.oram)
 .bss           0x00000000        0x0 ../../../nxtOSEK/ecrobot/../ecrobot/libecrobot.a(nxt_spi.oram)
 .text          0x00000000        0x0 ../../../nxtOSEK/ecrobot/../ecrobot/libecrobot.a(nxt_motors.oram)
 .data          0x00000000        0x0 ../../../nxtOSEK/ecrobot/../ecrobot/libecrobot.a(nxt_motors.oram)
 .bss           0x00000000        0x0 ../../../nxtOSEK/ecrobot/../ecrobot/libecrobot.a(nxt_motors.oram)
 .text.nxt_motor_command
                0x00000000       0x18 ../../../nxtOSEK/ecrobot/../ecrobot/libecrobot.a(nxt_motors.oram)
 .text          0x00000000        0x0 ../../../nxtOSEK/ecrobot/../ecrobot/libecrobot.a(data_abort.oram)
 .data          0x00000000        0x0 ../../../nxtOSEK/ecrobot/../ecrobot/libecrobot.a(data_abort.oram)
 .bss           0x00000000        0x0 ../../../nxtOSEK/ecrobot/../ecrobot/libecrobot.a(data_abort.oram)
 .text          0x00000000        0x0 ../../../nxtOSEK/ecrobot/../ecrobot/libecrobot.a(display.oram)
 .data          0x00000000        0x0 ../../../nxtOSEK/ecrobot/../ecrobot/libecrobot.a(display.oram)
 .bss           0x00000000        0x0 ../../../nxtOSEK/ecrobot/../ecrobot/libecrobot.a(display.oram)
 .text.display_set_auto_update
                0x00000000        0xc ../../../nxtOSEK/ecrobot/../ecrobot/libecrobot.a(display.oram)
 .text.display_get_buffer
                0x00000000        0xc ../../../nxtOSEK/ecrobot/../ecrobot/libecrobot.a(display.oram)
 .text.display_get_array
                0x00000000        0x8 ../../../nxtOSEK/ecrobot/../ecrobot/libecrobot.a(display.oram)
 .text.display_test
                0x00000000       0xb0 ../../../nxtOSEK/ecrobot/../ecrobot/libecrobot.a(display.oram)
 .text          0x00000000        0x0 ../../../nxtOSEK/ecrobot/../ecrobot/libecrobot.a(i2c.oram)
 .data          0x00000000        0x0 ../../../nxtOSEK/ecrobot/../ecrobot/libecrobot.a(i2c.oram)
 .bss           0x00000000        0x0 ../../../nxtOSEK/ecrobot/../ecrobot/libecrobot.a(i2c.oram)
 .text.i2c_enable
                0x00000000       0x50 ../../../nxtOSEK/ecrobot/../ecrobot/libecrobot.a(i2c.oram)
 .text.i2c_busy
                0x00000000       0x28 ../../../nxtOSEK/ecrobot/../ecrobot/libecrobot.a(i2c.oram)
 .text.i2c_start_transaction
                0x00000000       0xe8 ../../../nxtOSEK/ecrobot/../ecrobot/libecrobot.a(i2c.oram)
 .text          0x00000000        0x0 ../../../nxtOSEK/ecrobot/../ecrobot/libecrobot.a(sound.oram)
 .data          0x00000000        0x0 ../../../nxtOSEK/ecrobot/../ecrobot/libecrobot.a(sound.oram)
 .bss           0x00000000        0x0 ../../../nxtOSEK/ecrobot/../ecrobot/libecrobot.a(sound.oram)
 .text.set_vol  0x00000000       0x9c ../../../nxtOSEK/ecrobot/../ecrobot/libecrobot.a(sound.oram)
 .text.sound_freq_vol
                0x00000000      0x184 ../../../nxtOSEK/ecrobot/../ecrobot/libecrobot.a(sound.oram)
 .text.sound_freq
                0x00000000        0xe ../../../nxtOSEK/ecrobot/../ecrobot/libecrobot.a(sound.oram)
 .text.sound_enable
                0x00000000       0x10 ../../../nxtOSEK/ecrobot/../ecrobot/libecrobot.a(sound.oram)
 .text.sound_disable
                0x00000000       0x10 ../../../nxtOSEK/ecrobot/../ecrobot/libecrobot.a(sound.oram)
 .text.sound_play_sample
                0x00000000       0x90 ../../../nxtOSEK/ecrobot/../ecrobot/libecrobot.a(sound.oram)
 .text.sound_get_time
                0x00000000       0x80 ../../../nxtOSEK/ecrobot/../ecrobot/libecrobot.a(sound.oram)
 .rodata.sine   0x00000000       0x10 ../../../nxtOSEK/ecrobot/../ecrobot/libecrobot.a(sound.oram)
 .rodata.logvol
                0x00000000        0xc ../../../nxtOSEK/ecrobot/../ecrobot/libecrobot.a(sound.oram)
 .text          0x00000000        0x0 ../../../nxtOSEK/ecrobot/../ecrobot/libecrobot.a(bt.oram)
 .data          0x00000000        0x0 ../../../nxtOSEK/ecrobot/../ecrobot/libecrobot.a(bt.oram)
 .bss           0x00000000        0x0 ../../../nxtOSEK/ecrobot/../ecrobot/libecrobot.a(bt.oram)
 .text.bt_start_ad_converter
                0x00000000        0x2 ../../../nxtOSEK/ecrobot/../ecrobot/libecrobot.a(bt.oram)
 .text.bt_get_mode
                0x00000000        0xc ../../../nxtOSEK/ecrobot/../ecrobot/libecrobot.a(bt.oram)
 .text.bt_set_reset_high
                0x00000000       0x10 ../../../nxtOSEK/ecrobot/../ecrobot/libecrobot.a(bt.oram)
 .text.bt_set_reset_low
                0x00000000       0x10 ../../../nxtOSEK/ecrobot/../ecrobot/libecrobot.a(bt.oram)
 .text          0x00000000        0x0 ../../../nxtOSEK/ecrobot/../ecrobot/libecrobot.a(nxt_avr.oram)
 .data          0x00000000        0x0 ../../../nxtOSEK/ecrobot/../ecrobot/libecrobot.a(nxt_avr.oram)
 .bss           0x00000000        0x0 ../../../nxtOSEK/ecrobot/../ecrobot/libecrobot.a(nxt_avr.oram)
 .text.nxt_avr_firmware_update_mode
                0x00000000       0x10 ../../../nxtOSEK/ecrobot/../ecrobot/libecrobot.a(nxt_avr.oram)
 .text          0x00000000        0x0 ../../../nxtOSEK/ecrobot/../ecrobot/libecrobot.a(sensors.oram)
 .data          0x00000000        0x0 ../../../nxtOSEK/ecrobot/../ecrobot/libecrobot.a(sensors.oram)
 .bss           0x00000000        0x0 ../../../nxtOSEK/ecrobot/../ecrobot/libecrobot.a(sensors.oram)
 .text.poll_sensors
                0x00000000       0x20 ../../../nxtOSEK/ecrobot/../ecrobot/libecrobot.a(sensors.oram)
 .text.read_buttons
                0x00000000       0x10 ../../../nxtOSEK/ecrobot/../ecrobot/libecrobot.a(sensors.oram)
 .text.check_for_data
                0x00000000        0x6 ../../../nxtOSEK/ecrobot/../ecrobot/libecrobot.a(sensors.oram)
 .text.set_digi1
                0x00000000       0x48 ../../../nxtOSEK/ecrobot/../ecrobot/libecrobot.a(sensors.oram)
 .bss.sensors   0x00000000       0x20 ../../../nxtOSEK/ecrobot/../ecrobot/libecrobot.a(sensors.oram)
 .text          0x00000000        0x0 ../../../nxtOSEK/ecrobot/../ecrobot/libecrobot.a(sensors1.oram)
 .data          0x00000000        0x0 ../../../nxtOSEK/ecrobot/../ecrobot/libecrobot.a(sensors1.oram)
 .bss           0x00000000        0x0 ../../../nxtOSEK/ecrobot/../ecrobot/libecrobot.a(sensors1.oram)
 .text.sp_read  0x00000000       0x20 ../../../nxtOSEK/ecrobot/../ecrobot/libecrobot.a(sensors1.oram)
 .text.sp_set_mode
                0x00000000       0x80 ../../../nxtOSEK/ecrobot/../ecrobot/libecrobot.a(sensors1.oram)
 .text.sp_get   0x00000000       0x20 ../../../nxtOSEK/ecrobot/../ecrobot/libecrobot.a(sensors1.oram)
 .text.sp_set   0x00000000       0x28 ../../../nxtOSEK/ecrobot/../ecrobot/libecrobot.a(sensors1.oram)
 .text.sp_reset
                0x00000000       0x60 ../../../nxtOSEK/ecrobot/../ecrobot/libecrobot.a(sensors1.oram)
 .text.sp_init  0x00000000       0x20 ../../../nxtOSEK/ecrobot/../ecrobot/libecrobot.a(sensors1.oram)
 .text.sp_set_power
                0x00000000        0xc ../../../nxtOSEK/ecrobot/../ecrobot/libecrobot.a(sensors1.oram)
 .rodata.sensor_pins
                0x00000000       0x40 ../../../nxtOSEK/ecrobot/../ecrobot/libecrobot.a(sensors1.oram)
 .text          0x00000000        0x0 ../../../nxtOSEK/ecrobot/../ecrobot/libecrobot.a(nxt_lcd.oram)
 .data          0x00000000        0x0 ../../../nxtOSEK/ecrobot/../ecrobot/libecrobot.a(nxt_lcd.oram)
 .bss           0x00000000        0x0 ../../../nxtOSEK/ecrobot/../ecrobot/libecrobot.a(nxt_lcd.oram)
 .text.nxt_lcd_set_temp_comp
                0x00000000       0x14 ../../../nxtOSEK/ecrobot/../ecrobot/libecrobot.a(nxt_lcd.oram)
 .text.nxt_lcd_set_panel_loading
                0x00000000       0x14 ../../../nxtOSEK/ecrobot/../ecrobot/libecrobot.a(nxt_lcd.oram)
 .text.nxt_lcd_set_pump_control
                0x00000000       0x14 ../../../nxtOSEK/ecrobot/../ecrobot/libecrobot.a(nxt_lcd.oram)
 .text.nxt_lcd_set_scroll_line
                0x00000000       0x14 ../../../nxtOSEK/ecrobot/../ecrobot/libecrobot.a(nxt_lcd.oram)
 .text.nxt_lcd_set_frame_rate
                0x00000000       0x14 ../../../nxtOSEK/ecrobot/../ecrobot/libecrobot.a(nxt_lcd.oram)
 .text.nxt_lcd_set_all_pixels_on
                0x00000000       0x14 ../../../nxtOSEK/ecrobot/../ecrobot/libecrobot.a(nxt_lcd.oram)
 .text.nxt_lcd_inverse_display
                0x00000000       0x14 ../../../nxtOSEK/ecrobot/../ecrobot/libecrobot.a(nxt_lcd.oram)
 .text.nxt_lcd_set_cursor_update
                0x00000000       0x14 ../../../nxtOSEK/ecrobot/../ecrobot/libecrobot.a(nxt_lcd.oram)
 .text          0x00000000        0x0 ../../../nxtOSEK/ecrobot/../ecrobot/libecrobot.a(flash_loader.oram)
 .data          0x00000000        0x0 ../../../nxtOSEK/ecrobot/../ecrobot/libecrobot.a(flash_loader.oram)
 .bss           0x00000000        0x0 ../../../nxtOSEK/ecrobot/../ecrobot/libecrobot.a(flash_loader.oram)
 .text.is_bios_version_equal
                0x00000000       0x1c ../../../nxtOSEK/ecrobot/../ecrobot/libecrobot.a(flash_loader.oram)
 .text.has_flash_request
                0x00000000       0x1c ../../../nxtOSEK/ecrobot/../ecrobot/libecrobot.a(flash_loader.oram)
 .text.clear_flash_request
                0x00000000       0x2a ../../../nxtOSEK/ecrobot/../ecrobot/libecrobot.a(flash_loader.oram)
 .text.terminate_flash
                0x00000000       0x22 ../../../nxtOSEK/ecrobot/../ecrobot/libecrobot.a(flash_loader.oram)
 .text.flash_loader
                0x00000000      0x1c8 ../../../nxtOSEK/ecrobot/../ecrobot/libecrobot.a(flash_loader.oram)
 .data          0x00000000        0x0 ../../../nxtOSEK/ecrobot/../ecrobot/libecrobot.a(interrupts.oram)
 .bss           0x00000000        0x0 ../../../nxtOSEK/ecrobot/../ecrobot/libecrobot.a(interrupts.oram)
 .text          0x00000000        0x0 ../../../nxtOSEK/ecrobot/../ecrobot/libecrobot.a(ecrobot_usb.o)
 .data          0x00000000        0x0 ../../../nxtOSEK/ecrobot/../ecrobot/libecrobot.a(ecrobot_usb.o)
 .bss           0x00000000        0x0 ../../../nxtOSEK/ecrobot/../ecrobot/libecrobot.a(ecrobot_usb.o)
 .text.ecrobot_init_usb
                0x00000000       0x4c ../../../nxtOSEK/ecrobot/../ecrobot/libecrobot.a(ecrobot_usb.o)
 .text.ecrobot_set_name_usb
                0x00000000       0x3c ../../../nxtOSEK/ecrobot/../ecrobot/libecrobot.a(ecrobot_usb.o)
 .text.ecrobot_process1ms_usb
                0x00000000       0xd4 ../../../nxtOSEK/ecrobot/../ecrobot/libecrobot.a(ecrobot_usb.o)
 .text.ecrobot_is_usb_connected
                0x00000000       0x10 ../../../nxtOSEK/ecrobot/../ecrobot/libecrobot.a(ecrobot_usb.o)
 .text.ecrobot_read_usb
                0x00000000       0x48 ../../../nxtOSEK/ecrobot/../ecrobot/libecrobot.a(ecrobot_usb.o)
 .text.ecrobot_send_usb
                0x00000000       0x20 ../../../nxtOSEK/ecrobot/../ecrobot/libecrobot.a(ecrobot_usb.o)
 .text.ecrobot_term_usb
                0x00000000       0x18 ../../../nxtOSEK/ecrobot/../ecrobot/libecrobot.a(ecrobot_usb.o)
 .text.ecrobot_disconnect_usb
                0x00000000       0x20 ../../../nxtOSEK/ecrobot/../ecrobot/libecrobot.a(ecrobot_usb.o)
 .bss.read_data_len
                0x00000000        0x4 ../../../nxtOSEK/ecrobot/../ecrobot/libecrobot.a(ecrobot_usb.o)
 .rodata.ecrobot_sig
                0x00000000        0x7 ../../../nxtOSEK/ecrobot/../ecrobot/libecrobot.a(ecrobot_usb.o)
 .bss.usb_buf   0x00000000       0x40 ../../../nxtOSEK/ecrobot/../ecrobot/libecrobot.a(ecrobot_usb.o)
 .rodata.str1.1
                0x00000000       0x11 ../../../nxtOSEK/ecrobot/../ecrobot/libecrobot.a(ecrobot_usb.o)
 .data.dev_name
                0x00000000       0x10 ../../../nxtOSEK/ecrobot/../ecrobot/libecrobot.a(ecrobot_usb.o)
 .bss.usb_status
                0x00000000        0x1 ../../../nxtOSEK/ecrobot/../ecrobot/libecrobot.a(ecrobot_usb.o)
 .text          0x00000000        0x0 ../../../nxtOSEK/ecrobot/../ecrobot/libecrobot.a(flashprog.oram)
 .data          0x00000000        0x0 ../../../nxtOSEK/ecrobot/../ecrobot/libecrobot.a(flashprog.oram)
 .bss           0x00000000        0x0 ../../../nxtOSEK/ecrobot/../ecrobot/libecrobot.a(flashprog.oram)
 .text.flash_set_mode
                0x00000000       0x10 ../../../nxtOSEK/ecrobot/../ecrobot/libecrobot.a(flashprog.oram)
 .text.flash_erase_range
                0x00000000       0x14 ../../../nxtOSEK/ecrobot/../ecrobot/libecrobot.a(flashprog.oram)
 .text.flash_write
                0x00000000       0x14 ../../../nxtOSEK/ecrobot/../ecrobot/libecrobot.a(flashprog.oram)
 .text          0x00000000        0x0 ../../../nxtOSEK/ecrobot/../ecrobot/libnxtway_gs_balancer.a(balancer.o)
 .data          0x00000000        0x0 ../../../nxtOSEK/ecrobot/../ecrobot/libnxtway_gs_balancer.a(balancer.o)
 .bss           0x00000000        0x0 ../../../nxtOSEK/ecrobot/../ecrobot/libnxtway_gs_balancer.a(balancer.o)
 .data          0x00000000        0x0 /Users/e125754/etrobo/yagarto-4.6.2/bin/../lib/gcc/arm-none-eabi/4.6.2/thumb/libgcc.a(_thumb1_case_uqi.o)
 .bss           0x00000000        0x0 /Users/e125754/etrobo/yagarto-4.6.2/bin/../lib/gcc/arm-none-eabi/4.6.2/thumb/libgcc.a(_thumb1_case_uqi.o)
 .debug_line    0x00000000       0x75 /Users/e125754/etrobo/yagarto-4.6.2/bin/../lib/gcc/arm-none-eabi/4.6.2/thumb/libgcc.a(_thumb1_case_uqi.o)
 .debug_info    0x00000000       0xa9 /Users/e125754/etrobo/yagarto-4.6.2/bin/../lib/gcc/arm-none-eabi/4.6.2/thumb/libgcc.a(_thumb1_case_uqi.o)
 .debug_abbrev  0x00000000       0x14 /Users/e125754/etrobo/yagarto-4.6.2/bin/../lib/gcc/arm-none-eabi/4.6.2/thumb/libgcc.a(_thumb1_case_uqi.o)
 .debug_aranges
                0x00000000       0x20 /Users/e125754/etrobo/yagarto-4.6.2/bin/../lib/gcc/arm-none-eabi/4.6.2/thumb/libgcc.a(_thumb1_case_uqi.o)
 .data          0x00000000        0x0 /Users/e125754/etrobo/yagarto-4.6.2/bin/../lib/gcc/arm-none-eabi/4.6.2/thumb/libgcc.a(_thumb1_case_uhi.o)
 .bss           0x00000000        0x0 /Users/e125754/etrobo/yagarto-4.6.2/bin/../lib/gcc/arm-none-eabi/4.6.2/thumb/libgcc.a(_thumb1_case_uhi.o)
 .debug_line    0x00000000       0x76 /Users/e125754/etrobo/yagarto-4.6.2/bin/../lib/gcc/arm-none-eabi/4.6.2/thumb/libgcc.a(_thumb1_case_uhi.o)
 .debug_info    0x00000000       0xa9 /Users/e125754/etrobo/yagarto-4.6.2/bin/../lib/gcc/arm-none-eabi/4.6.2/thumb/libgcc.a(_thumb1_case_uhi.o)
 .debug_abbrev  0x00000000       0x14 /Users/e125754/etrobo/yagarto-4.6.2/bin/../lib/gcc/arm-none-eabi/4.6.2/thumb/libgcc.a(_thumb1_case_uhi.o)
 .debug_aranges
                0x00000000       0x20 /Users/e125754/etrobo/yagarto-4.6.2/bin/../lib/gcc/arm-none-eabi/4.6.2/thumb/libgcc.a(_thumb1_case_uhi.o)
 .data          0x00000000        0x0 /Users/e125754/etrobo/yagarto-4.6.2/bin/../lib/gcc/arm-none-eabi/4.6.2/thumb/libgcc.a(_udivsi3.o)
 .bss           0x00000000        0x0 /Users/e125754/etrobo/yagarto-4.6.2/bin/../lib/gcc/arm-none-eabi/4.6.2/thumb/libgcc.a(_udivsi3.o)
 .debug_frame   0x00000000       0x20 /Users/e125754/etrobo/yagarto-4.6.2/bin/../lib/gcc/arm-none-eabi/4.6.2/thumb/libgcc.a(_udivsi3.o)
 .debug_line    0x00000000       0x9a /Users/e125754/etrobo/yagarto-4.6.2/bin/../lib/gcc/arm-none-eabi/4.6.2/thumb/libgcc.a(_udivsi3.o)
 .debug_info    0x00000000       0xa9 /Users/e125754/etrobo/yagarto-4.6.2/bin/../lib/gcc/arm-none-eabi/4.6.2/thumb/libgcc.a(_udivsi3.o)
 .debug_abbrev  0x00000000       0x14 /Users/e125754/etrobo/yagarto-4.6.2/bin/../lib/gcc/arm-none-eabi/4.6.2/thumb/libgcc.a(_udivsi3.o)
 .debug_aranges
                0x00000000       0x20 /Users/e125754/etrobo/yagarto-4.6.2/bin/../lib/gcc/arm-none-eabi/4.6.2/thumb/libgcc.a(_udivsi3.o)
 .text          0x00000000      0x150 /Users/e125754/etrobo/yagarto-4.6.2/bin/../lib/gcc/arm-none-eabi/4.6.2/thumb/libgcc.a(_divsi3.o)
 .data          0x00000000        0x0 /Users/e125754/etrobo/yagarto-4.6.2/bin/../lib/gcc/arm-none-eabi/4.6.2/thumb/libgcc.a(_divsi3.o)
 .bss           0x00000000        0x0 /Users/e125754/etrobo/yagarto-4.6.2/bin/../lib/gcc/arm-none-eabi/4.6.2/thumb/libgcc.a(_divsi3.o)
 .debug_frame   0x00000000       0x20 /Users/e125754/etrobo/yagarto-4.6.2/bin/../lib/gcc/arm-none-eabi/4.6.2/thumb/libgcc.a(_divsi3.o)
 .debug_line    0x00000000       0xa6 /Users/e125754/etrobo/yagarto-4.6.2/bin/../lib/gcc/arm-none-eabi/4.6.2/thumb/libgcc.a(_divsi3.o)
 .debug_info    0x00000000       0xa9 /Users/e125754/etrobo/yagarto-4.6.2/bin/../lib/gcc/arm-none-eabi/4.6.2/thumb/libgcc.a(_divsi3.o)
 .debug_abbrev  0x00000000       0x14 /Users/e125754/etrobo/yagarto-4.6.2/bin/../lib/gcc/arm-none-eabi/4.6.2/thumb/libgcc.a(_divsi3.o)
 .debug_aranges
                0x00000000       0x20 /Users/e125754/etrobo/yagarto-4.6.2/bin/../lib/gcc/arm-none-eabi/4.6.2/thumb/libgcc.a(_divsi3.o)
 .data          0x00000000        0x0 /Users/e125754/etrobo/yagarto-4.6.2/bin/../lib/gcc/arm-none-eabi/4.6.2/thumb/libgcc.a(_dvmd_tls.o)
 .bss           0x00000000        0x0 /Users/e125754/etrobo/yagarto-4.6.2/bin/../lib/gcc/arm-none-eabi/4.6.2/thumb/libgcc.a(_dvmd_tls.o)
 .debug_line    0x00000000       0x6d /Users/e125754/etrobo/yagarto-4.6.2/bin/../lib/gcc/arm-none-eabi/4.6.2/thumb/libgcc.a(_dvmd_tls.o)
 .debug_info    0x00000000       0xa9 /Users/e125754/etrobo/yagarto-4.6.2/bin/../lib/gcc/arm-none-eabi/4.6.2/thumb/libgcc.a(_dvmd_tls.o)
 .debug_abbrev  0x00000000       0x14 /Users/e125754/etrobo/yagarto-4.6.2/bin/../lib/gcc/arm-none-eabi/4.6.2/thumb/libgcc.a(_dvmd_tls.o)
 .debug_aranges
                0x00000000       0x20 /Users/e125754/etrobo/yagarto-4.6.2/bin/../lib/gcc/arm-none-eabi/4.6.2/thumb/libgcc.a(_dvmd_tls.o)
 .text          0x00000000      0x41c /Users/e125754/etrobo/yagarto-4.6.2/bin/../lib/gcc/arm-none-eabi/4.6.2/thumb/libgcc.a(_arm_addsubdf3.o)
 .data          0x00000000        0x0 /Users/e125754/etrobo/yagarto-4.6.2/bin/../lib/gcc/arm-none-eabi/4.6.2/thumb/libgcc.a(_arm_addsubdf3.o)
 .bss           0x00000000        0x0 /Users/e125754/etrobo/yagarto-4.6.2/bin/../lib/gcc/arm-none-eabi/4.6.2/thumb/libgcc.a(_arm_addsubdf3.o)
 .debug_line    0x00000000      0x172 /Users/e125754/etrobo/yagarto-4.6.2/bin/../lib/gcc/arm-none-eabi/4.6.2/thumb/libgcc.a(_arm_addsubdf3.o)
 .debug_info    0x00000000       0xa8 /Users/e125754/etrobo/yagarto-4.6.2/bin/../lib/gcc/arm-none-eabi/4.6.2/thumb/libgcc.a(_arm_addsubdf3.o)
 .debug_abbrev  0x00000000       0x14 /Users/e125754/etrobo/yagarto-4.6.2/bin/../lib/gcc/arm-none-eabi/4.6.2/thumb/libgcc.a(_arm_addsubdf3.o)
 .debug_aranges
                0x00000000       0x20 /Users/e125754/etrobo/yagarto-4.6.2/bin/../lib/gcc/arm-none-eabi/4.6.2/thumb/libgcc.a(_arm_addsubdf3.o)
 .text          0x00000000      0x49c /Users/e125754/etrobo/yagarto-4.6.2/bin/../lib/gcc/arm-none-eabi/4.6.2/thumb/libgcc.a(_arm_muldivdf3.o)
 .data          0x00000000        0x0 /Users/e125754/etrobo/yagarto-4.6.2/bin/../lib/gcc/arm-none-eabi/4.6.2/thumb/libgcc.a(_arm_muldivdf3.o)
 .bss           0x00000000        0x0 /Users/e125754/etrobo/yagarto-4.6.2/bin/../lib/gcc/arm-none-eabi/4.6.2/thumb/libgcc.a(_arm_muldivdf3.o)
 .debug_line    0x00000000      0x18a /Users/e125754/etrobo/yagarto-4.6.2/bin/../lib/gcc/arm-none-eabi/4.6.2/thumb/libgcc.a(_arm_muldivdf3.o)
 .debug_info    0x00000000       0xa8 /Users/e125754/etrobo/yagarto-4.6.2/bin/../lib/gcc/arm-none-eabi/4.6.2/thumb/libgcc.a(_arm_muldivdf3.o)
 .debug_abbrev  0x00000000       0x14 /Users/e125754/etrobo/yagarto-4.6.2/bin/../lib/gcc/arm-none-eabi/4.6.2/thumb/libgcc.a(_arm_muldivdf3.o)
 .debug_aranges
                0x00000000       0x20 /Users/e125754/etrobo/yagarto-4.6.2/bin/../lib/gcc/arm-none-eabi/4.6.2/thumb/libgcc.a(_arm_muldivdf3.o)
 .text          0x00000000      0x144 /Users/e125754/etrobo/yagarto-4.6.2/bin/../lib/gcc/arm-none-eabi/4.6.2/thumb/libgcc.a(_arm_cmpdf2.o)
 .data          0x00000000        0x0 /Users/e125754/etrobo/yagarto-4.6.2/bin/../lib/gcc/arm-none-eabi/4.6.2/thumb/libgcc.a(_arm_cmpdf2.o)
 .bss           0x00000000        0x0 /Users/e125754/etrobo/yagarto-4.6.2/bin/../lib/gcc/arm-none-eabi/4.6.2/thumb/libgcc.a(_arm_cmpdf2.o)
 .debug_line    0x00000000       0xb8 /Users/e125754/etrobo/yagarto-4.6.2/bin/../lib/gcc/arm-none-eabi/4.6.2/thumb/libgcc.a(_arm_cmpdf2.o)
 .debug_info    0x00000000       0xa8 /Users/e125754/etrobo/yagarto-4.6.2/bin/../lib/gcc/arm-none-eabi/4.6.2/thumb/libgcc.a(_arm_cmpdf2.o)
 .debug_abbrev  0x00000000       0x14 /Users/e125754/etrobo/yagarto-4.6.2/bin/../lib/gcc/arm-none-eabi/4.6.2/thumb/libgcc.a(_arm_cmpdf2.o)
 .debug_aranges
                0x00000000       0x20 /Users/e125754/etrobo/yagarto-4.6.2/bin/../lib/gcc/arm-none-eabi/4.6.2/thumb/libgcc.a(_arm_cmpdf2.o)
 .data          0x00000000        0x0 /Users/e125754/etrobo/yagarto-4.6.2/bin/../lib/gcc/arm-none-eabi/4.6.2/thumb/libgcc.a(_arm_addsubsf3.o)
 .bss           0x00000000        0x0 /Users/e125754/etrobo/yagarto-4.6.2/bin/../lib/gcc/arm-none-eabi/4.6.2/thumb/libgcc.a(_arm_addsubsf3.o)
 .debug_line    0x00000000      0x123 /Users/e125754/etrobo/yagarto-4.6.2/bin/../lib/gcc/arm-none-eabi/4.6.2/thumb/libgcc.a(_arm_addsubsf3.o)
 .debug_info    0x00000000       0xa8 /Users/e125754/etrobo/yagarto-4.6.2/bin/../lib/gcc/arm-none-eabi/4.6.2/thumb/libgcc.a(_arm_addsubsf3.o)
 .debug_abbrev  0x00000000       0x14 /Users/e125754/etrobo/yagarto-4.6.2/bin/../lib/gcc/arm-none-eabi/4.6.2/thumb/libgcc.a(_arm_addsubsf3.o)
 .debug_aranges
                0x00000000       0x20 /Users/e125754/etrobo/yagarto-4.6.2/bin/../lib/gcc/arm-none-eabi/4.6.2/thumb/libgcc.a(_arm_addsubsf3.o)
 .data          0x00000000        0x0 /Users/e125754/etrobo/yagarto-4.6.2/bin/../lib/gcc/arm-none-eabi/4.6.2/thumb/libgcc.a(_arm_muldivsf3.o)
 .bss           0x00000000        0x0 /Users/e125754/etrobo/yagarto-4.6.2/bin/../lib/gcc/arm-none-eabi/4.6.2/thumb/libgcc.a(_arm_muldivsf3.o)
 .debug_line    0x00000000      0x12d /Users/e125754/etrobo/yagarto-4.6.2/bin/../lib/gcc/arm-none-eabi/4.6.2/thumb/libgcc.a(_arm_muldivsf3.o)
 .debug_info    0x00000000       0xa8 /Users/e125754/etrobo/yagarto-4.6.2/bin/../lib/gcc/arm-none-eabi/4.6.2/thumb/libgcc.a(_arm_muldivsf3.o)
 .debug_abbrev  0x00000000       0x14 /Users/e125754/etrobo/yagarto-4.6.2/bin/../lib/gcc/arm-none-eabi/4.6.2/thumb/libgcc.a(_arm_muldivsf3.o)
 .debug_aranges
                0x00000000       0x20 /Users/e125754/etrobo/yagarto-4.6.2/bin/../lib/gcc/arm-none-eabi/4.6.2/thumb/libgcc.a(_arm_muldivsf3.o)
 .data          0x00000000        0x0 /Users/e125754/etrobo/yagarto-4.6.2/bin/../lib/gcc/arm-none-eabi/4.6.2/thumb/libgcc.a(_arm_cmpsf2.o)
 .bss           0x00000000        0x0 /Users/e125754/etrobo/yagarto-4.6.2/bin/../lib/gcc/arm-none-eabi/4.6.2/thumb/libgcc.a(_arm_cmpsf2.o)
 .debug_line    0x00000000       0xac /Users/e125754/etrobo/yagarto-4.6.2/bin/../lib/gcc/arm-none-eabi/4.6.2/thumb/libgcc.a(_arm_cmpsf2.o)
 .debug_info    0x00000000       0xa8 /Users/e125754/etrobo/yagarto-4.6.2/bin/../lib/gcc/arm-none-eabi/4.6.2/thumb/libgcc.a(_arm_cmpsf2.o)
 .debug_abbrev  0x00000000       0x14 /Users/e125754/etrobo/yagarto-4.6.2/bin/../lib/gcc/arm-none-eabi/4.6.2/thumb/libgcc.a(_arm_cmpsf2.o)
 .debug_aranges
                0x00000000       0x20 /Users/e125754/etrobo/yagarto-4.6.2/bin/../lib/gcc/arm-none-eabi/4.6.2/thumb/libgcc.a(_arm_cmpsf2.o)
 .data          0x00000000        0x0 /Users/e125754/etrobo/yagarto-4.6.2/bin/../lib/gcc/arm-none-eabi/4.6.2/thumb/libgcc.a(_arm_fixsfsi.o)
 .bss           0x00000000        0x0 /Users/e125754/etrobo/yagarto-4.6.2/bin/../lib/gcc/arm-none-eabi/4.6.2/thumb/libgcc.a(_arm_fixsfsi.o)
 .debug_line    0x00000000       0x82 /Users/e125754/etrobo/yagarto-4.6.2/bin/../lib/gcc/arm-none-eabi/4.6.2/thumb/libgcc.a(_arm_fixsfsi.o)
 .debug_info    0x00000000       0xa8 /Users/e125754/etrobo/yagarto-4.6.2/bin/../lib/gcc/arm-none-eabi/4.6.2/thumb/libgcc.a(_arm_fixsfsi.o)
 .debug_abbrev  0x00000000       0x14 /Users/e125754/etrobo/yagarto-4.6.2/bin/../lib/gcc/arm-none-eabi/4.6.2/thumb/libgcc.a(_arm_fixsfsi.o)
 .debug_aranges
                0x00000000       0x20 /Users/e125754/etrobo/yagarto-4.6.2/bin/../lib/gcc/arm-none-eabi/4.6.2/thumb/libgcc.a(_arm_fixsfsi.o)
 .text          0x00000000       0x44 /Users/e125754/etrobo/yagarto-4.6.2/bin/../lib/gcc/arm-none-eabi/4.6.2/thumb/libgcc.a(_aeabi_ldivmod.o)
 .data          0x00000000        0x0 /Users/e125754/etrobo/yagarto-4.6.2/bin/../lib/gcc/arm-none-eabi/4.6.2/thumb/libgcc.a(_aeabi_ldivmod.o)
 .bss           0x00000000        0x0 /Users/e125754/etrobo/yagarto-4.6.2/bin/../lib/gcc/arm-none-eabi/4.6.2/thumb/libgcc.a(_aeabi_ldivmod.o)
 .debug_line    0x00000000       0x6e /Users/e125754/etrobo/yagarto-4.6.2/bin/../lib/gcc/arm-none-eabi/4.6.2/thumb/libgcc.a(_aeabi_ldivmod.o)
 .debug_info    0x00000000       0xa3 /Users/e125754/etrobo/yagarto-4.6.2/bin/../lib/gcc/arm-none-eabi/4.6.2/thumb/libgcc.a(_aeabi_ldivmod.o)
 .debug_abbrev  0x00000000       0x14 /Users/e125754/etrobo/yagarto-4.6.2/bin/../lib/gcc/arm-none-eabi/4.6.2/thumb/libgcc.a(_aeabi_ldivmod.o)
 .debug_aranges
                0x00000000       0x20 /Users/e125754/etrobo/yagarto-4.6.2/bin/../lib/gcc/arm-none-eabi/4.6.2/thumb/libgcc.a(_aeabi_ldivmod.o)
 .text          0x00000000       0x4c /Users/e125754/etrobo/yagarto-4.6.2/bin/../lib/gcc/arm-none-eabi/4.6.2/thumb/libgcc.a(_muldi3.o)
 .data          0x00000000        0x0 /Users/e125754/etrobo/yagarto-4.6.2/bin/../lib/gcc/arm-none-eabi/4.6.2/thumb/libgcc.a(_muldi3.o)
 .bss           0x00000000        0x0 /Users/e125754/etrobo/yagarto-4.6.2/bin/../lib/gcc/arm-none-eabi/4.6.2/thumb/libgcc.a(_muldi3.o)
 .debug_info    0x00000000      0x202 /Users/e125754/etrobo/yagarto-4.6.2/bin/../lib/gcc/arm-none-eabi/4.6.2/thumb/libgcc.a(_muldi3.o)
 .debug_abbrev  0x00000000       0xec /Users/e125754/etrobo/yagarto-4.6.2/bin/../lib/gcc/arm-none-eabi/4.6.2/thumb/libgcc.a(_muldi3.o)
 .debug_loc     0x00000000       0xed /Users/e125754/etrobo/yagarto-4.6.2/bin/../lib/gcc/arm-none-eabi/4.6.2/thumb/libgcc.a(_muldi3.o)
 .debug_aranges
                0x00000000       0x20 /Users/e125754/etrobo/yagarto-4.6.2/bin/../lib/gcc/arm-none-eabi/4.6.2/thumb/libgcc.a(_muldi3.o)
 .debug_ranges  0x00000000       0x50 /Users/e125754/etrobo/yagarto-4.6.2/bin/../lib/gcc/arm-none-eabi/4.6.2/thumb/libgcc.a(_muldi3.o)
 .debug_line    0x00000000       0x9e /Users/e125754/etrobo/yagarto-4.6.2/bin/../lib/gcc/arm-none-eabi/4.6.2/thumb/libgcc.a(_muldi3.o)
 .debug_str     0x00000000      0x190 /Users/e125754/etrobo/yagarto-4.6.2/bin/../lib/gcc/arm-none-eabi/4.6.2/thumb/libgcc.a(_muldi3.o)
 .debug_frame   0x00000000       0x30 /Users/e125754/etrobo/yagarto-4.6.2/bin/../lib/gcc/arm-none-eabi/4.6.2/thumb/libgcc.a(_muldi3.o)
 .text          0x00000000       0x74 /Users/e125754/etrobo/yagarto-4.6.2/bin/../lib/gcc/arm-none-eabi/4.6.2/thumb/libgcc.a(bpabi.o)
 .data          0x00000000        0x0 /Users/e125754/etrobo/yagarto-4.6.2/bin/../lib/gcc/arm-none-eabi/4.6.2/thumb/libgcc.a(bpabi.o)
 .bss           0x00000000        0x0 /Users/e125754/etrobo/yagarto-4.6.2/bin/../lib/gcc/arm-none-eabi/4.6.2/thumb/libgcc.a(bpabi.o)
 .ARM.extab     0x00000000        0x0 /Users/e125754/etrobo/yagarto-4.6.2/bin/../lib/gcc/arm-none-eabi/4.6.2/thumb/libgcc.a(bpabi.o)
 .ARM.exidx     0x00000000       0x10 /Users/e125754/etrobo/yagarto-4.6.2/bin/../lib/gcc/arm-none-eabi/4.6.2/thumb/libgcc.a(bpabi.o)
 .debug_info    0x00000000       0xea /Users/e125754/etrobo/yagarto-4.6.2/bin/../lib/gcc/arm-none-eabi/4.6.2/thumb/libgcc.a(bpabi.o)
 .debug_abbrev  0x00000000       0x6e /Users/e125754/etrobo/yagarto-4.6.2/bin/../lib/gcc/arm-none-eabi/4.6.2/thumb/libgcc.a(bpabi.o)
 .debug_loc     0x00000000      0x198 /Users/e125754/etrobo/yagarto-4.6.2/bin/../lib/gcc/arm-none-eabi/4.6.2/thumb/libgcc.a(bpabi.o)
 .debug_aranges
                0x00000000       0x20 /Users/e125754/etrobo/yagarto-4.6.2/bin/../lib/gcc/arm-none-eabi/4.6.2/thumb/libgcc.a(bpabi.o)
 .debug_line    0x00000000       0x75 /Users/e125754/etrobo/yagarto-4.6.2/bin/../lib/gcc/arm-none-eabi/4.6.2/thumb/libgcc.a(bpabi.o)
 .debug_str     0x00000000       0xec /Users/e125754/etrobo/yagarto-4.6.2/bin/../lib/gcc/arm-none-eabi/4.6.2/thumb/libgcc.a(bpabi.o)
 .debug_frame   0x00000000       0x50 /Users/e125754/etrobo/yagarto-4.6.2/bin/../lib/gcc/arm-none-eabi/4.6.2/thumb/libgcc.a(bpabi.o)
 .text          0x00000000      0xa84 /Users/e125754/etrobo/yagarto-4.6.2/bin/../lib/gcc/arm-none-eabi/4.6.2/thumb/libgcc.a(unwind-arm.o)
 .data          0x00000000        0x0 /Users/e125754/etrobo/yagarto-4.6.2/bin/../lib/gcc/arm-none-eabi/4.6.2/thumb/libgcc.a(unwind-arm.o)
 .bss           0x00000000        0x0 /Users/e125754/etrobo/yagarto-4.6.2/bin/../lib/gcc/arm-none-eabi/4.6.2/thumb/libgcc.a(unwind-arm.o)
 .ARM.extab     0x00000000       0x6c /Users/e125754/etrobo/yagarto-4.6.2/bin/../lib/gcc/arm-none-eabi/4.6.2/thumb/libgcc.a(unwind-arm.o)
 .ARM.exidx     0x00000000       0xc0 /Users/e125754/etrobo/yagarto-4.6.2/bin/../lib/gcc/arm-none-eabi/4.6.2/thumb/libgcc.a(unwind-arm.o)
 .rodata        0x00000000       0x14 /Users/e125754/etrobo/yagarto-4.6.2/bin/../lib/gcc/arm-none-eabi/4.6.2/thumb/libgcc.a(unwind-arm.o)
 .debug_info    0x00000000     0x1243 /Users/e125754/etrobo/yagarto-4.6.2/bin/../lib/gcc/arm-none-eabi/4.6.2/thumb/libgcc.a(unwind-arm.o)
 .debug_abbrev  0x00000000      0x2b5 /Users/e125754/etrobo/yagarto-4.6.2/bin/../lib/gcc/arm-none-eabi/4.6.2/thumb/libgcc.a(unwind-arm.o)
 .debug_loc     0x00000000     0x154f /Users/e125754/etrobo/yagarto-4.6.2/bin/../lib/gcc/arm-none-eabi/4.6.2/thumb/libgcc.a(unwind-arm.o)
 .debug_aranges
                0x00000000       0x20 /Users/e125754/etrobo/yagarto-4.6.2/bin/../lib/gcc/arm-none-eabi/4.6.2/thumb/libgcc.a(unwind-arm.o)
 .debug_ranges  0x00000000      0x120 /Users/e125754/etrobo/yagarto-4.6.2/bin/../lib/gcc/arm-none-eabi/4.6.2/thumb/libgcc.a(unwind-arm.o)
 .debug_line    0x00000000      0x489 /Users/e125754/etrobo/yagarto-4.6.2/bin/../lib/gcc/arm-none-eabi/4.6.2/thumb/libgcc.a(unwind-arm.o)
 .debug_str     0x00000000      0x931 /Users/e125754/etrobo/yagarto-4.6.2/bin/../lib/gcc/arm-none-eabi/4.6.2/thumb/libgcc.a(unwind-arm.o)
 .debug_frame   0x00000000      0x2ac /Users/e125754/etrobo/yagarto-4.6.2/bin/../lib/gcc/arm-none-eabi/4.6.2/thumb/libgcc.a(unwind-arm.o)
 .text          0x00000000      0x1d8 /Users/e125754/etrobo/yagarto-4.6.2/bin/../lib/gcc/arm-none-eabi/4.6.2/thumb/libgcc.a(libunwind.o)
 .data          0x00000000        0x0 /Users/e125754/etrobo/yagarto-4.6.2/bin/../lib/gcc/arm-none-eabi/4.6.2/thumb/libgcc.a(libunwind.o)
 .bss           0x00000000        0x0 /Users/e125754/etrobo/yagarto-4.6.2/bin/../lib/gcc/arm-none-eabi/4.6.2/thumb/libgcc.a(libunwind.o)
 .debug_line    0x00000000       0xb8 /Users/e125754/etrobo/yagarto-4.6.2/bin/../lib/gcc/arm-none-eabi/4.6.2/thumb/libgcc.a(libunwind.o)
 .debug_info    0x00000000       0xa7 /Users/e125754/etrobo/yagarto-4.6.2/bin/../lib/gcc/arm-none-eabi/4.6.2/thumb/libgcc.a(libunwind.o)
 .debug_abbrev  0x00000000       0x14 /Users/e125754/etrobo/yagarto-4.6.2/bin/../lib/gcc/arm-none-eabi/4.6.2/thumb/libgcc.a(libunwind.o)
 .debug_aranges
                0x00000000       0x20 /Users/e125754/etrobo/yagarto-4.6.2/bin/../lib/gcc/arm-none-eabi/4.6.2/thumb/libgcc.a(libunwind.o)
 .text          0x00000000      0x3a0 /Users/e125754/etrobo/yagarto-4.6.2/bin/../lib/gcc/arm-none-eabi/4.6.2/thumb/libgcc.a(pr-support.o)
 .data          0x00000000        0x0 /Users/e125754/etrobo/yagarto-4.6.2/bin/../lib/gcc/arm-none-eabi/4.6.2/thumb/libgcc.a(pr-support.o)
 .bss           0x00000000        0x0 /Users/e125754/etrobo/yagarto-4.6.2/bin/../lib/gcc/arm-none-eabi/4.6.2/thumb/libgcc.a(pr-support.o)
 .ARM.extab     0x00000000       0x30 /Users/e125754/etrobo/yagarto-4.6.2/bin/../lib/gcc/arm-none-eabi/4.6.2/thumb/libgcc.a(pr-support.o)
 .ARM.exidx     0x00000000       0x48 /Users/e125754/etrobo/yagarto-4.6.2/bin/../lib/gcc/arm-none-eabi/4.6.2/thumb/libgcc.a(pr-support.o)
 .debug_info    0x00000000      0x5fb /Users/e125754/etrobo/yagarto-4.6.2/bin/../lib/gcc/arm-none-eabi/4.6.2/thumb/libgcc.a(pr-support.o)
 .debug_abbrev  0x00000000      0x228 /Users/e125754/etrobo/yagarto-4.6.2/bin/../lib/gcc/arm-none-eabi/4.6.2/thumb/libgcc.a(pr-support.o)
 .debug_loc     0x00000000      0x5d2 /Users/e125754/etrobo/yagarto-4.6.2/bin/../lib/gcc/arm-none-eabi/4.6.2/thumb/libgcc.a(pr-support.o)
 .debug_aranges
                0x00000000       0x20 /Users/e125754/etrobo/yagarto-4.6.2/bin/../lib/gcc/arm-none-eabi/4.6.2/thumb/libgcc.a(pr-support.o)
 .debug_ranges  0x00000000       0x18 /Users/e125754/etrobo/yagarto-4.6.2/bin/../lib/gcc/arm-none-eabi/4.6.2/thumb/libgcc.a(pr-support.o)
 .debug_line    0x00000000      0x1c9 /Users/e125754/etrobo/yagarto-4.6.2/bin/../lib/gcc/arm-none-eabi/4.6.2/thumb/libgcc.a(pr-support.o)
 .debug_str     0x00000000      0x468 /Users/e125754/etrobo/yagarto-4.6.2/bin/../lib/gcc/arm-none-eabi/4.6.2/thumb/libgcc.a(pr-support.o)
 .debug_frame   0x00000000       0xfc /Users/e125754/etrobo/yagarto-4.6.2/bin/../lib/gcc/arm-none-eabi/4.6.2/thumb/libgcc.a(pr-support.o)
 .text          0x00000000      0x390 /Users/e125754/etrobo/yagarto-4.6.2/bin/../lib/gcc/arm-none-eabi/4.6.2/thumb/libgcc.a(_divdi3.o)
 .data          0x00000000        0x0 /Users/e125754/etrobo/yagarto-4.6.2/bin/../lib/gcc/arm-none-eabi/4.6.2/thumb/libgcc.a(_divdi3.o)
 .bss           0x00000000        0x0 /Users/e125754/etrobo/yagarto-4.6.2/bin/../lib/gcc/arm-none-eabi/4.6.2/thumb/libgcc.a(_divdi3.o)
 .ARM.extab     0x00000000        0xc /Users/e125754/etrobo/yagarto-4.6.2/bin/../lib/gcc/arm-none-eabi/4.6.2/thumb/libgcc.a(_divdi3.o)
 .ARM.exidx     0x00000000        0x8 /Users/e125754/etrobo/yagarto-4.6.2/bin/../lib/gcc/arm-none-eabi/4.6.2/thumb/libgcc.a(_divdi3.o)
 .debug_info    0x00000000      0x687 /Users/e125754/etrobo/yagarto-4.6.2/bin/../lib/gcc/arm-none-eabi/4.6.2/thumb/libgcc.a(_divdi3.o)
 .debug_abbrev  0x00000000      0x14e /Users/e125754/etrobo/yagarto-4.6.2/bin/../lib/gcc/arm-none-eabi/4.6.2/thumb/libgcc.a(_divdi3.o)
 .debug_loc     0x00000000      0xcf1 /Users/e125754/etrobo/yagarto-4.6.2/bin/../lib/gcc/arm-none-eabi/4.6.2/thumb/libgcc.a(_divdi3.o)
 .debug_aranges
                0x00000000       0x20 /Users/e125754/etrobo/yagarto-4.6.2/bin/../lib/gcc/arm-none-eabi/4.6.2/thumb/libgcc.a(_divdi3.o)
 .debug_ranges  0x00000000      0x120 /Users/e125754/etrobo/yagarto-4.6.2/bin/../lib/gcc/arm-none-eabi/4.6.2/thumb/libgcc.a(_divdi3.o)
 .debug_line    0x00000000      0x103 /Users/e125754/etrobo/yagarto-4.6.2/bin/../lib/gcc/arm-none-eabi/4.6.2/thumb/libgcc.a(_divdi3.o)
 .debug_str     0x00000000      0x1c3 /Users/e125754/etrobo/yagarto-4.6.2/bin/../lib/gcc/arm-none-eabi/4.6.2/thumb/libgcc.a(_divdi3.o)
 .debug_frame   0x00000000       0x3c /Users/e125754/etrobo/yagarto-4.6.2/bin/../lib/gcc/arm-none-eabi/4.6.2/thumb/libgcc.a(_divdi3.o)
 .text          0x00000000      0x358 /Users/e125754/etrobo/yagarto-4.6.2/bin/../lib/gcc/arm-none-eabi/4.6.2/thumb/libgcc.a(_udivdi3.o)
 .data          0x00000000        0x0 /Users/e125754/etrobo/yagarto-4.6.2/bin/../lib/gcc/arm-none-eabi/4.6.2/thumb/libgcc.a(_udivdi3.o)
 .bss           0x00000000        0x0 /Users/e125754/etrobo/yagarto-4.6.2/bin/../lib/gcc/arm-none-eabi/4.6.2/thumb/libgcc.a(_udivdi3.o)
 .ARM.extab     0x00000000        0xc /Users/e125754/etrobo/yagarto-4.6.2/bin/../lib/gcc/arm-none-eabi/4.6.2/thumb/libgcc.a(_udivdi3.o)
 .ARM.exidx     0x00000000        0x8 /Users/e125754/etrobo/yagarto-4.6.2/bin/../lib/gcc/arm-none-eabi/4.6.2/thumb/libgcc.a(_udivdi3.o)
 .debug_info    0x00000000      0x64a /Users/e125754/etrobo/yagarto-4.6.2/bin/../lib/gcc/arm-none-eabi/4.6.2/thumb/libgcc.a(_udivdi3.o)
 .debug_abbrev  0x00000000      0x148 /Users/e125754/etrobo/yagarto-4.6.2/bin/../lib/gcc/arm-none-eabi/4.6.2/thumb/libgcc.a(_udivdi3.o)
 .debug_loc     0x00000000      0xd8d /Users/e125754/etrobo/yagarto-4.6.2/bin/../lib/gcc/arm-none-eabi/4.6.2/thumb/libgcc.a(_udivdi3.o)
 .debug_aranges
                0x00000000       0x20 /Users/e125754/etrobo/yagarto-4.6.2/bin/../lib/gcc/arm-none-eabi/4.6.2/thumb/libgcc.a(_udivdi3.o)
 .debug_ranges  0x00000000       0xf0 /Users/e125754/etrobo/yagarto-4.6.2/bin/../lib/gcc/arm-none-eabi/4.6.2/thumb/libgcc.a(_udivdi3.o)
 .debug_line    0x00000000       0xe0 /Users/e125754/etrobo/yagarto-4.6.2/bin/../lib/gcc/arm-none-eabi/4.6.2/thumb/libgcc.a(_udivdi3.o)
 .debug_str     0x00000000      0x1c4 /Users/e125754/etrobo/yagarto-4.6.2/bin/../lib/gcc/arm-none-eabi/4.6.2/thumb/libgcc.a(_udivdi3.o)
 .debug_frame   0x00000000       0x3c /Users/e125754/etrobo/yagarto-4.6.2/bin/../lib/gcc/arm-none-eabi/4.6.2/thumb/libgcc.a(_udivdi3.o)
 .text          0x00000000       0x48 /Users/e125754/etrobo/yagarto-4.6.2/bin/../lib/gcc/arm-none-eabi/4.6.2/thumb/libgcc.a(_clzsi2.o)
 .data          0x00000000        0x0 /Users/e125754/etrobo/yagarto-4.6.2/bin/../lib/gcc/arm-none-eabi/4.6.2/thumb/libgcc.a(_clzsi2.o)
 .bss           0x00000000        0x0 /Users/e125754/etrobo/yagarto-4.6.2/bin/../lib/gcc/arm-none-eabi/4.6.2/thumb/libgcc.a(_clzsi2.o)
 .debug_line    0x00000000       0x7a /Users/e125754/etrobo/yagarto-4.6.2/bin/../lib/gcc/arm-none-eabi/4.6.2/thumb/libgcc.a(_clzsi2.o)
 .debug_info    0x00000000       0xa9 /Users/e125754/etrobo/yagarto-4.6.2/bin/../lib/gcc/arm-none-eabi/4.6.2/thumb/libgcc.a(_clzsi2.o)
 .debug_abbrev  0x00000000       0x14 /Users/e125754/etrobo/yagarto-4.6.2/bin/../lib/gcc/arm-none-eabi/4.6.2/thumb/libgcc.a(_clzsi2.o)
 .debug_aranges
                0x00000000       0x20 /Users/e125754/etrobo/yagarto-4.6.2/bin/../lib/gcc/arm-none-eabi/4.6.2/thumb/libgcc.a(_clzsi2.o)
 .text          0x00000000       0x10 /Users/e125754/etrobo/yagarto-4.6.2/bin/../lib/gcc/arm-none-eabi/4.6.2/../../../../arm-none-eabi/lib/thumb/libc.a(lib_a-abort.o)
 .data          0x00000000        0x0 /Users/e125754/etrobo/yagarto-4.6.2/bin/../lib/gcc/arm-none-eabi/4.6.2/../../../../arm-none-eabi/lib/thumb/libc.a(lib_a-abort.o)
 .bss           0x00000000        0x0 /Users/e125754/etrobo/yagarto-4.6.2/bin/../lib/gcc/arm-none-eabi/4.6.2/../../../../arm-none-eabi/lib/thumb/libc.a(lib_a-abort.o)
 .debug_info    0x00000000       0x88 /Users/e125754/etrobo/yagarto-4.6.2/bin/../lib/gcc/arm-none-eabi/4.6.2/../../../../arm-none-eabi/lib/thumb/libc.a(lib_a-abort.o)
 .debug_abbrev  0x00000000       0x3f /Users/e125754/etrobo/yagarto-4.6.2/bin/../lib/gcc/arm-none-eabi/4.6.2/../../../../arm-none-eabi/lib/thumb/libc.a(lib_a-abort.o)
 .debug_loc     0x00000000       0x20 /Users/e125754/etrobo/yagarto-4.6.2/bin/../lib/gcc/arm-none-eabi/4.6.2/../../../../arm-none-eabi/lib/thumb/libc.a(lib_a-abort.o)
 .debug_aranges
                0x00000000       0x20 /Users/e125754/etrobo/yagarto-4.6.2/bin/../lib/gcc/arm-none-eabi/4.6.2/../../../../arm-none-eabi/lib/thumb/libc.a(lib_a-abort.o)
 .debug_line    0x00000000       0xbb /Users/e125754/etrobo/yagarto-4.6.2/bin/../lib/gcc/arm-none-eabi/4.6.2/../../../../arm-none-eabi/lib/thumb/libc.a(lib_a-abort.o)
 .debug_str     0x00000000      0x12b /Users/e125754/etrobo/yagarto-4.6.2/bin/../lib/gcc/arm-none-eabi/4.6.2/../../../../arm-none-eabi/lib/thumb/libc.a(lib_a-abort.o)
 .debug_frame   0x00000000       0x28 /Users/e125754/etrobo/yagarto-4.6.2/bin/../lib/gcc/arm-none-eabi/4.6.2/../../../../arm-none-eabi/lib/thumb/libc.a(lib_a-abort.o)
 .data          0x00000000        0x0 /Users/e125754/etrobo/yagarto-4.6.2/bin/../lib/gcc/arm-none-eabi/4.6.2/../../../../arm-none-eabi/lib/thumb/libc.a(lib_a-cxa_finalize.o)
 .bss           0x00000000        0x0 /Users/e125754/etrobo/yagarto-4.6.2/bin/../lib/gcc/arm-none-eabi/4.6.2/../../../../arm-none-eabi/lib/thumb/libc.a(lib_a-cxa_finalize.o)
 .debug_info    0x00000000       0x98 /Users/e125754/etrobo/yagarto-4.6.2/bin/../lib/gcc/arm-none-eabi/4.6.2/../../../../arm-none-eabi/lib/thumb/libc.a(lib_a-cxa_finalize.o)
 .debug_abbrev  0x00000000       0x55 /Users/e125754/etrobo/yagarto-4.6.2/bin/../lib/gcc/arm-none-eabi/4.6.2/../../../../arm-none-eabi/lib/thumb/libc.a(lib_a-cxa_finalize.o)
 .debug_loc     0x00000000       0x3e /Users/e125754/etrobo/yagarto-4.6.2/bin/../lib/gcc/arm-none-eabi/4.6.2/../../../../arm-none-eabi/lib/thumb/libc.a(lib_a-cxa_finalize.o)
 .debug_aranges
                0x00000000       0x20 /Users/e125754/etrobo/yagarto-4.6.2/bin/../lib/gcc/arm-none-eabi/4.6.2/../../../../arm-none-eabi/lib/thumb/libc.a(lib_a-cxa_finalize.o)
 .debug_line    0x00000000       0x74 /Users/e125754/etrobo/yagarto-4.6.2/bin/../lib/gcc/arm-none-eabi/4.6.2/../../../../arm-none-eabi/lib/thumb/libc.a(lib_a-cxa_finalize.o)
 .debug_str     0x00000000      0x13b /Users/e125754/etrobo/yagarto-4.6.2/bin/../lib/gcc/arm-none-eabi/4.6.2/../../../../arm-none-eabi/lib/thumb/libc.a(lib_a-cxa_finalize.o)
 .debug_frame   0x00000000       0x28 /Users/e125754/etrobo/yagarto-4.6.2/bin/../lib/gcc/arm-none-eabi/4.6.2/../../../../arm-none-eabi/lib/thumb/libc.a(lib_a-cxa_finalize.o)
 .data          0x00000000        0x0 /Users/e125754/etrobo/yagarto-4.6.2/bin/../lib/gcc/arm-none-eabi/4.6.2/../../../../arm-none-eabi/lib/thumb/libc.a(lib_a-memcpy.o)
 .bss           0x00000000        0x0 /Users/e125754/etrobo/yagarto-4.6.2/bin/../lib/gcc/arm-none-eabi/4.6.2/../../../../arm-none-eabi/lib/thumb/libc.a(lib_a-memcpy.o)
 .debug_info    0x00000000      0x130 /Users/e125754/etrobo/yagarto-4.6.2/bin/../lib/gcc/arm-none-eabi/4.6.2/../../../../arm-none-eabi/lib/thumb/libc.a(lib_a-memcpy.o)
 .debug_abbrev  0x00000000       0x99 /Users/e125754/etrobo/yagarto-4.6.2/bin/../lib/gcc/arm-none-eabi/4.6.2/../../../../arm-none-eabi/lib/thumb/libc.a(lib_a-memcpy.o)
 .debug_loc     0x00000000      0x1a0 /Users/e125754/etrobo/yagarto-4.6.2/bin/../lib/gcc/arm-none-eabi/4.6.2/../../../../arm-none-eabi/lib/thumb/libc.a(lib_a-memcpy.o)
 .debug_aranges
                0x00000000       0x20 /Users/e125754/etrobo/yagarto-4.6.2/bin/../lib/gcc/arm-none-eabi/4.6.2/../../../../arm-none-eabi/lib/thumb/libc.a(lib_a-memcpy.o)
 .debug_line    0x00000000      0x16a /Users/e125754/etrobo/yagarto-4.6.2/bin/../lib/gcc/arm-none-eabi/4.6.2/../../../../arm-none-eabi/lib/thumb/libc.a(lib_a-memcpy.o)
 .debug_str     0x00000000      0x15b /Users/e125754/etrobo/yagarto-4.6.2/bin/../lib/gcc/arm-none-eabi/4.6.2/../../../../arm-none-eabi/lib/thumb/libc.a(lib_a-memcpy.o)
 .debug_frame   0x00000000       0x30 /Users/e125754/etrobo/yagarto-4.6.2/bin/../lib/gcc/arm-none-eabi/4.6.2/../../../../arm-none-eabi/lib/thumb/libc.a(lib_a-memcpy.o)
 .data          0x00000000        0x0 /Users/e125754/etrobo/yagarto-4.6.2/bin/../lib/gcc/arm-none-eabi/4.6.2/../../../../arm-none-eabi/lib/thumb/libc.a(lib_a-memset.o)
 .bss           0x00000000        0x0 /Users/e125754/etrobo/yagarto-4.6.2/bin/../lib/gcc/arm-none-eabi/4.6.2/../../../../arm-none-eabi/lib/thumb/libc.a(lib_a-memset.o)
 .debug_info    0x00000000      0x116 /Users/e125754/etrobo/yagarto-4.6.2/bin/../lib/gcc/arm-none-eabi/4.6.2/../../../../arm-none-eabi/lib/thumb/libc.a(lib_a-memset.o)
 .debug_abbrev  0x00000000       0x8d /Users/e125754/etrobo/yagarto-4.6.2/bin/../lib/gcc/arm-none-eabi/4.6.2/../../../../arm-none-eabi/lib/thumb/libc.a(lib_a-memset.o)
 .debug_loc     0x00000000      0x1fc /Users/e125754/etrobo/yagarto-4.6.2/bin/../lib/gcc/arm-none-eabi/4.6.2/../../../../arm-none-eabi/lib/thumb/libc.a(lib_a-memset.o)
 .debug_aranges
                0x00000000       0x20 /Users/e125754/etrobo/yagarto-4.6.2/bin/../lib/gcc/arm-none-eabi/4.6.2/../../../../arm-none-eabi/lib/thumb/libc.a(lib_a-memset.o)
 .debug_line    0x00000000      0x165 /Users/e125754/etrobo/yagarto-4.6.2/bin/../lib/gcc/arm-none-eabi/4.6.2/../../../../arm-none-eabi/lib/thumb/libc.a(lib_a-memset.o)
 .debug_str     0x00000000      0x148 /Users/e125754/etrobo/yagarto-4.6.2/bin/../lib/gcc/arm-none-eabi/4.6.2/../../../../arm-none-eabi/lib/thumb/libc.a(lib_a-memset.o)
 .debug_frame   0x00000000       0x2c /Users/e125754/etrobo/yagarto-4.6.2/bin/../lib/gcc/arm-none-eabi/4.6.2/../../../../arm-none-eabi/lib/thumb/libc.a(lib_a-memset.o)
 .text          0x00000000      0x194 /Users/e125754/etrobo/yagarto-4.6.2/bin/../lib/gcc/arm-none-eabi/4.6.2/../../../../arm-none-eabi/lib/thumb/libc.a(lib_a-signal.o)
 .data          0x00000000        0x0 /Users/e125754/etrobo/yagarto-4.6.2/bin/../lib/gcc/arm-none-eabi/4.6.2/../../../../arm-none-eabi/lib/thumb/libc.a(lib_a-signal.o)
 .bss           0x00000000        0x0 /Users/e125754/etrobo/yagarto-4.6.2/bin/../lib/gcc/arm-none-eabi/4.6.2/../../../../arm-none-eabi/lib/thumb/libc.a(lib_a-signal.o)
 .debug_info    0x00000000      0xb5f /Users/e125754/etrobo/yagarto-4.6.2/bin/../lib/gcc/arm-none-eabi/4.6.2/../../../../arm-none-eabi/lib/thumb/libc.a(lib_a-signal.o)
 .debug_abbrev  0x00000000      0x221 /Users/e125754/etrobo/yagarto-4.6.2/bin/../lib/gcc/arm-none-eabi/4.6.2/../../../../arm-none-eabi/lib/thumb/libc.a(lib_a-signal.o)
 .debug_loc     0x00000000      0x355 /Users/e125754/etrobo/yagarto-4.6.2/bin/../lib/gcc/arm-none-eabi/4.6.2/../../../../arm-none-eabi/lib/thumb/libc.a(lib_a-signal.o)
 .debug_aranges
                0x00000000       0x20 /Users/e125754/etrobo/yagarto-4.6.2/bin/../lib/gcc/arm-none-eabi/4.6.2/../../../../arm-none-eabi/lib/thumb/libc.a(lib_a-signal.o)
 .debug_line    0x00000000      0x200 /Users/e125754/etrobo/yagarto-4.6.2/bin/../lib/gcc/arm-none-eabi/4.6.2/../../../../arm-none-eabi/lib/thumb/libc.a(lib_a-signal.o)
 .debug_str     0x00000000      0x551 /Users/e125754/etrobo/yagarto-4.6.2/bin/../lib/gcc/arm-none-eabi/4.6.2/../../../../arm-none-eabi/lib/thumb/libc.a(lib_a-signal.o)
 .debug_frame   0x00000000       0xe4 /Users/e125754/etrobo/yagarto-4.6.2/bin/../lib/gcc/arm-none-eabi/4.6.2/../../../../arm-none-eabi/lib/thumb/libc.a(lib_a-signal.o)
 .text          0x00000000       0x38 /Users/e125754/etrobo/yagarto-4.6.2/bin/../lib/gcc/arm-none-eabi/4.6.2/../../../../arm-none-eabi/lib/thumb/libc.a(lib_a-signalr.o)
 .data          0x00000000        0x0 /Users/e125754/etrobo/yagarto-4.6.2/bin/../lib/gcc/arm-none-eabi/4.6.2/../../../../arm-none-eabi/lib/thumb/libc.a(lib_a-signalr.o)
 .bss           0x00000000        0x0 /Users/e125754/etrobo/yagarto-4.6.2/bin/../lib/gcc/arm-none-eabi/4.6.2/../../../../arm-none-eabi/lib/thumb/libc.a(lib_a-signalr.o)
 .debug_info    0x00000000      0x9f4 /Users/e125754/etrobo/yagarto-4.6.2/bin/../lib/gcc/arm-none-eabi/4.6.2/../../../../arm-none-eabi/lib/thumb/libc.a(lib_a-signalr.o)
 .debug_abbrev  0x00000000      0x1a4 /Users/e125754/etrobo/yagarto-4.6.2/bin/../lib/gcc/arm-none-eabi/4.6.2/../../../../arm-none-eabi/lib/thumb/libc.a(lib_a-signalr.o)
 .debug_loc     0x00000000       0xad /Users/e125754/etrobo/yagarto-4.6.2/bin/../lib/gcc/arm-none-eabi/4.6.2/../../../../arm-none-eabi/lib/thumb/libc.a(lib_a-signalr.o)
 .debug_aranges
                0x00000000       0x20 /Users/e125754/etrobo/yagarto-4.6.2/bin/../lib/gcc/arm-none-eabi/4.6.2/../../../../arm-none-eabi/lib/thumb/libc.a(lib_a-signalr.o)
 .debug_line    0x00000000      0x18a /Users/e125754/etrobo/yagarto-4.6.2/bin/../lib/gcc/arm-none-eabi/4.6.2/../../../../arm-none-eabi/lib/thumb/libc.a(lib_a-signalr.o)
 .debug_str     0x00000000      0x4fa /Users/e125754/etrobo/yagarto-4.6.2/bin/../lib/gcc/arm-none-eabi/4.6.2/../../../../arm-none-eabi/lib/thumb/libc.a(lib_a-signalr.o)
 .debug_frame   0x00000000       0x44 /Users/e125754/etrobo/yagarto-4.6.2/bin/../lib/gcc/arm-none-eabi/4.6.2/../../../../arm-none-eabi/lib/thumb/libc.a(lib_a-signalr.o)
 .text          0x00000000       0x14 /Users/e125754/etrobo/yagarto-4.6.2/bin/../lib/gcc/arm-none-eabi/4.6.2/../../../../arm-none-eabi/lib/thumb/libc.a(lib_a-strcmp.o)
 .data          0x00000000        0x0 /Users/e125754/etrobo/yagarto-4.6.2/bin/../lib/gcc/arm-none-eabi/4.6.2/../../../../arm-none-eabi/lib/thumb/libc.a(lib_a-strcmp.o)
 .bss           0x00000000        0x0 /Users/e125754/etrobo/yagarto-4.6.2/bin/../lib/gcc/arm-none-eabi/4.6.2/../../../../arm-none-eabi/lib/thumb/libc.a(lib_a-strcmp.o)
 .debug_info    0x00000000       0xb1 /Users/e125754/etrobo/yagarto-4.6.2/bin/../lib/gcc/arm-none-eabi/4.6.2/../../../../arm-none-eabi/lib/thumb/libc.a(lib_a-strcmp.o)
 .debug_abbrev  0x00000000       0x6f /Users/e125754/etrobo/yagarto-4.6.2/bin/../lib/gcc/arm-none-eabi/4.6.2/../../../../arm-none-eabi/lib/thumb/libc.a(lib_a-strcmp.o)
 .debug_loc     0x00000000       0x13 /Users/e125754/etrobo/yagarto-4.6.2/bin/../lib/gcc/arm-none-eabi/4.6.2/../../../../arm-none-eabi/lib/thumb/libc.a(lib_a-strcmp.o)
 .debug_aranges
                0x00000000       0x20 /Users/e125754/etrobo/yagarto-4.6.2/bin/../lib/gcc/arm-none-eabi/4.6.2/../../../../arm-none-eabi/lib/thumb/libc.a(lib_a-strcmp.o)
 .debug_line    0x00000000       0xc3 /Users/e125754/etrobo/yagarto-4.6.2/bin/../lib/gcc/arm-none-eabi/4.6.2/../../../../arm-none-eabi/lib/thumb/libc.a(lib_a-strcmp.o)
 .debug_str     0x00000000      0x13a /Users/e125754/etrobo/yagarto-4.6.2/bin/../lib/gcc/arm-none-eabi/4.6.2/../../../../arm-none-eabi/lib/thumb/libc.a(lib_a-strcmp.o)
 .debug_frame   0x00000000       0x20 /Users/e125754/etrobo/yagarto-4.6.2/bin/../lib/gcc/arm-none-eabi/4.6.2/../../../../arm-none-eabi/lib/thumb/libc.a(lib_a-strcmp.o)
 .data          0x00000000        0x0 /Users/e125754/etrobo/yagarto-4.6.2/bin/../lib/gcc/arm-none-eabi/4.6.2/../../../../arm-none-eabi/lib/thumb/libc.a(lib_a-strcpy.o)
 .bss           0x00000000        0x0 /Users/e125754/etrobo/yagarto-4.6.2/bin/../lib/gcc/arm-none-eabi/4.6.2/../../../../arm-none-eabi/lib/thumb/libc.a(lib_a-strcpy.o)
 .debug_info    0x00000000       0xb9 /Users/e125754/etrobo/yagarto-4.6.2/bin/../lib/gcc/arm-none-eabi/4.6.2/../../../../arm-none-eabi/lib/thumb/libc.a(lib_a-strcpy.o)
 .debug_abbrev  0x00000000       0x6f /Users/e125754/etrobo/yagarto-4.6.2/bin/../lib/gcc/arm-none-eabi/4.6.2/../../../../arm-none-eabi/lib/thumb/libc.a(lib_a-strcpy.o)
 .debug_loc     0x00000000       0x13 /Users/e125754/etrobo/yagarto-4.6.2/bin/../lib/gcc/arm-none-eabi/4.6.2/../../../../arm-none-eabi/lib/thumb/libc.a(lib_a-strcpy.o)
 .debug_aranges
                0x00000000       0x20 /Users/e125754/etrobo/yagarto-4.6.2/bin/../lib/gcc/arm-none-eabi/4.6.2/../../../../arm-none-eabi/lib/thumb/libc.a(lib_a-strcpy.o)
 .debug_line    0x00000000       0xc3 /Users/e125754/etrobo/yagarto-4.6.2/bin/../lib/gcc/arm-none-eabi/4.6.2/../../../../arm-none-eabi/lib/thumb/libc.a(lib_a-strcpy.o)
 .debug_str     0x00000000      0x13a /Users/e125754/etrobo/yagarto-4.6.2/bin/../lib/gcc/arm-none-eabi/4.6.2/../../../../arm-none-eabi/lib/thumb/libc.a(lib_a-strcpy.o)
 .debug_frame   0x00000000       0x20 /Users/e125754/etrobo/yagarto-4.6.2/bin/../lib/gcc/arm-none-eabi/4.6.2/../../../../arm-none-eabi/lib/thumb/libc.a(lib_a-strcpy.o)
 .data          0x00000000        0x0 /Users/e125754/etrobo/yagarto-4.6.2/bin/../lib/gcc/arm-none-eabi/4.6.2/../../../../arm-none-eabi/lib/thumb/libc.a(lib_a-strlen.o)
 .bss           0x00000000        0x0 /Users/e125754/etrobo/yagarto-4.6.2/bin/../lib/gcc/arm-none-eabi/4.6.2/../../../../arm-none-eabi/lib/thumb/libc.a(lib_a-strlen.o)
 .debug_info    0x00000000       0xc9 /Users/e125754/etrobo/yagarto-4.6.2/bin/../lib/gcc/arm-none-eabi/4.6.2/../../../../arm-none-eabi/lib/thumb/libc.a(lib_a-strlen.o)
 .debug_abbrev  0x00000000       0x89 /Users/e125754/etrobo/yagarto-4.6.2/bin/../lib/gcc/arm-none-eabi/4.6.2/../../../../arm-none-eabi/lib/thumb/libc.a(lib_a-strlen.o)
 .debug_loc     0x00000000       0x13 /Users/e125754/etrobo/yagarto-4.6.2/bin/../lib/gcc/arm-none-eabi/4.6.2/../../../../arm-none-eabi/lib/thumb/libc.a(lib_a-strlen.o)
 .debug_aranges
                0x00000000       0x20 /Users/e125754/etrobo/yagarto-4.6.2/bin/../lib/gcc/arm-none-eabi/4.6.2/../../../../arm-none-eabi/lib/thumb/libc.a(lib_a-strlen.o)
 .debug_line    0x00000000      0x125 /Users/e125754/etrobo/yagarto-4.6.2/bin/../lib/gcc/arm-none-eabi/4.6.2/../../../../arm-none-eabi/lib/thumb/libc.a(lib_a-strlen.o)
 .debug_str     0x00000000      0x149 /Users/e125754/etrobo/yagarto-4.6.2/bin/../lib/gcc/arm-none-eabi/4.6.2/../../../../arm-none-eabi/lib/thumb/libc.a(lib_a-strlen.o)
 .debug_frame   0x00000000       0x20 /Users/e125754/etrobo/yagarto-4.6.2/bin/../lib/gcc/arm-none-eabi/4.6.2/../../../../arm-none-eabi/lib/thumb/libc.a(lib_a-strlen.o)
 .data          0x00000000        0x0 /Users/e125754/etrobo/yagarto-4.6.2/bin/../lib/gcc/arm-none-eabi/4.6.2/../../../../arm-none-eabi/lib/thumb/libc.a(lib_a-strncpy.o)
 .bss           0x00000000        0x0 /Users/e125754/etrobo/yagarto-4.6.2/bin/../lib/gcc/arm-none-eabi/4.6.2/../../../../arm-none-eabi/lib/thumb/libc.a(lib_a-strncpy.o)
 .debug_info    0x00000000      0x125 /Users/e125754/etrobo/yagarto-4.6.2/bin/../lib/gcc/arm-none-eabi/4.6.2/../../../../arm-none-eabi/lib/thumb/libc.a(lib_a-strncpy.o)
 .debug_abbrev  0x00000000       0x9c /Users/e125754/etrobo/yagarto-4.6.2/bin/../lib/gcc/arm-none-eabi/4.6.2/../../../../arm-none-eabi/lib/thumb/libc.a(lib_a-strncpy.o)
 .debug_loc     0x00000000      0x111 /Users/e125754/etrobo/yagarto-4.6.2/bin/../lib/gcc/arm-none-eabi/4.6.2/../../../../arm-none-eabi/lib/thumb/libc.a(lib_a-strncpy.o)
 .debug_aranges
                0x00000000       0x20 /Users/e125754/etrobo/yagarto-4.6.2/bin/../lib/gcc/arm-none-eabi/4.6.2/../../../../arm-none-eabi/lib/thumb/libc.a(lib_a-strncpy.o)
 .debug_line    0x00000000      0x142 /Users/e125754/etrobo/yagarto-4.6.2/bin/../lib/gcc/arm-none-eabi/4.6.2/../../../../arm-none-eabi/lib/thumb/libc.a(lib_a-strncpy.o)
 .debug_str     0x00000000      0x15e /Users/e125754/etrobo/yagarto-4.6.2/bin/../lib/gcc/arm-none-eabi/4.6.2/../../../../arm-none-eabi/lib/thumb/libc.a(lib_a-strncpy.o)
 .debug_frame   0x00000000       0x30 /Users/e125754/etrobo/yagarto-4.6.2/bin/../lib/gcc/arm-none-eabi/4.6.2/../../../../arm-none-eabi/lib/thumb/libc.a(lib_a-strncpy.o)
 .data          0x00000000        0x0 /Users/e125754/etrobo/yagarto-4.6.2/bin/../lib/gcc/arm-none-eabi/4.6.2/../../../../arm-none-eabi/lib/thumb/libc.a(lib_a-__call_atexit.o)
 .bss           0x00000000        0x0 /Users/e125754/etrobo/yagarto-4.6.2/bin/../lib/gcc/arm-none-eabi/4.6.2/../../../../arm-none-eabi/lib/thumb/libc.a(lib_a-__call_atexit.o)
 .debug_info    0x00000000      0x9fc /Users/e125754/etrobo/yagarto-4.6.2/bin/../lib/gcc/arm-none-eabi/4.6.2/../../../../arm-none-eabi/lib/thumb/libc.a(lib_a-__call_atexit.o)
 .debug_abbrev  0x00000000      0x1bc /Users/e125754/etrobo/yagarto-4.6.2/bin/../lib/gcc/arm-none-eabi/4.6.2/../../../../arm-none-eabi/lib/thumb/libc.a(lib_a-__call_atexit.o)
 .debug_loc     0x00000000      0x235 /Users/e125754/etrobo/yagarto-4.6.2/bin/../lib/gcc/arm-none-eabi/4.6.2/../../../../arm-none-eabi/lib/thumb/libc.a(lib_a-__call_atexit.o)
 .debug_aranges
                0x00000000       0x20 /Users/e125754/etrobo/yagarto-4.6.2/bin/../lib/gcc/arm-none-eabi/4.6.2/../../../../arm-none-eabi/lib/thumb/libc.a(lib_a-__call_atexit.o)
 .debug_ranges  0x00000000       0x38 /Users/e125754/etrobo/yagarto-4.6.2/bin/../lib/gcc/arm-none-eabi/4.6.2/../../../../arm-none-eabi/lib/thumb/libc.a(lib_a-__call_atexit.o)
 .debug_line    0x00000000      0x1d1 /Users/e125754/etrobo/yagarto-4.6.2/bin/../lib/gcc/arm-none-eabi/4.6.2/../../../../arm-none-eabi/lib/thumb/libc.a(lib_a-__call_atexit.o)
 .debug_str     0x00000000      0x518 /Users/e125754/etrobo/yagarto-4.6.2/bin/../lib/gcc/arm-none-eabi/4.6.2/../../../../arm-none-eabi/lib/thumb/libc.a(lib_a-__call_atexit.o)
 .debug_frame   0x00000000       0x3c /Users/e125754/etrobo/yagarto-4.6.2/bin/../lib/gcc/arm-none-eabi/4.6.2/../../../../arm-none-eabi/lib/thumb/libc.a(lib_a-__call_atexit.o)
 .text          0x00000000        0x0 /Users/e125754/etrobo/yagarto-4.6.2/bin/../lib/gcc/arm-none-eabi/4.6.2/../../../../arm-none-eabi/lib/thumb/libc.a(lib_a-impure.o)
 .bss           0x00000000        0x0 /Users/e125754/etrobo/yagarto-4.6.2/bin/../lib/gcc/arm-none-eabi/4.6.2/../../../../arm-none-eabi/lib/thumb/libc.a(lib_a-impure.o)
 .debug_info    0x00000000      0x966 /Users/e125754/etrobo/yagarto-4.6.2/bin/../lib/gcc/arm-none-eabi/4.6.2/../../../../arm-none-eabi/lib/thumb/libc.a(lib_a-impure.o)
 .debug_abbrev  0x00000000      0x166 /Users/e125754/etrobo/yagarto-4.6.2/bin/../lib/gcc/arm-none-eabi/4.6.2/../../../../arm-none-eabi/lib/thumb/libc.a(lib_a-impure.o)
 .debug_line    0x00000000      0x11c /Users/e125754/etrobo/yagarto-4.6.2/bin/../lib/gcc/arm-none-eabi/4.6.2/../../../../arm-none-eabi/lib/thumb/libc.a(lib_a-impure.o)
 .debug_str     0x00000000      0x4fe /Users/e125754/etrobo/yagarto-4.6.2/bin/../lib/gcc/arm-none-eabi/4.6.2/../../../../arm-none-eabi/lib/thumb/libc.a(lib_a-impure.o)
 .text          0x00000000      0x514 /Users/e125754/etrobo/yagarto-4.6.2/bin/../lib/gcc/arm-none-eabi/4.6.2/../../../../arm-none-eabi/lib/thumb/libc.a(lib_a-mallocr.o)
 .data          0x00000000      0x410 /Users/e125754/etrobo/yagarto-4.6.2/bin/../lib/gcc/arm-none-eabi/4.6.2/../../../../arm-none-eabi/lib/thumb/libc.a(lib_a-mallocr.o)
 .bss           0x00000000       0x34 /Users/e125754/etrobo/yagarto-4.6.2/bin/../lib/gcc/arm-none-eabi/4.6.2/../../../../arm-none-eabi/lib/thumb/libc.a(lib_a-mallocr.o)
 .debug_info    0x00000000      0xd6b /Users/e125754/etrobo/yagarto-4.6.2/bin/../lib/gcc/arm-none-eabi/4.6.2/../../../../arm-none-eabi/lib/thumb/libc.a(lib_a-mallocr.o)
 .debug_abbrev  0x00000000      0x233 /Users/e125754/etrobo/yagarto-4.6.2/bin/../lib/gcc/arm-none-eabi/4.6.2/../../../../arm-none-eabi/lib/thumb/libc.a(lib_a-mallocr.o)
 .debug_loc     0x00000000      0xa9c /Users/e125754/etrobo/yagarto-4.6.2/bin/../lib/gcc/arm-none-eabi/4.6.2/../../../../arm-none-eabi/lib/thumb/libc.a(lib_a-mallocr.o)
 .debug_aranges
                0x00000000       0x20 /Users/e125754/etrobo/yagarto-4.6.2/bin/../lib/gcc/arm-none-eabi/4.6.2/../../../../arm-none-eabi/lib/thumb/libc.a(lib_a-mallocr.o)
 .debug_ranges  0x00000000       0x60 /Users/e125754/etrobo/yagarto-4.6.2/bin/../lib/gcc/arm-none-eabi/4.6.2/../../../../arm-none-eabi/lib/thumb/libc.a(lib_a-mallocr.o)
 .debug_line    0x00000000      0x35d /Users/e125754/etrobo/yagarto-4.6.2/bin/../lib/gcc/arm-none-eabi/4.6.2/../../../../arm-none-eabi/lib/thumb/libc.a(lib_a-mallocr.o)
 .debug_str     0x00000000      0x6d5 /Users/e125754/etrobo/yagarto-4.6.2/bin/../lib/gcc/arm-none-eabi/4.6.2/../../../../arm-none-eabi/lib/thumb/libc.a(lib_a-mallocr.o)
 .debug_frame   0x00000000       0x3c /Users/e125754/etrobo/yagarto-4.6.2/bin/../lib/gcc/arm-none-eabi/4.6.2/../../../../arm-none-eabi/lib/thumb/libc.a(lib_a-mallocr.o)
 .text          0x00000000        0x8 /Users/e125754/etrobo/yagarto-4.6.2/bin/../lib/gcc/arm-none-eabi/4.6.2/../../../../arm-none-eabi/lib/thumb/libc.a(lib_a-mlock.o)
 .data          0x00000000        0x0 /Users/e125754/etrobo/yagarto-4.6.2/bin/../lib/gcc/arm-none-eabi/4.6.2/../../../../arm-none-eabi/lib/thumb/libc.a(lib_a-mlock.o)
 .bss           0x00000000        0x0 /Users/e125754/etrobo/yagarto-4.6.2/bin/../lib/gcc/arm-none-eabi/4.6.2/../../../../arm-none-eabi/lib/thumb/libc.a(lib_a-mlock.o)
 .debug_info    0x00000000      0x980 /Users/e125754/etrobo/yagarto-4.6.2/bin/../lib/gcc/arm-none-eabi/4.6.2/../../../../arm-none-eabi/lib/thumb/libc.a(lib_a-mlock.o)
 .debug_abbrev  0x00000000      0x179 /Users/e125754/etrobo/yagarto-4.6.2/bin/../lib/gcc/arm-none-eabi/4.6.2/../../../../arm-none-eabi/lib/thumb/libc.a(lib_a-mlock.o)
 .debug_aranges
                0x00000000       0x20 /Users/e125754/etrobo/yagarto-4.6.2/bin/../lib/gcc/arm-none-eabi/4.6.2/../../../../arm-none-eabi/lib/thumb/libc.a(lib_a-mlock.o)
 .debug_line    0x00000000      0x12e /Users/e125754/etrobo/yagarto-4.6.2/bin/../lib/gcc/arm-none-eabi/4.6.2/../../../../arm-none-eabi/lib/thumb/libc.a(lib_a-mlock.o)
 .debug_str     0x00000000      0x507 /Users/e125754/etrobo/yagarto-4.6.2/bin/../lib/gcc/arm-none-eabi/4.6.2/../../../../arm-none-eabi/lib/thumb/libc.a(lib_a-mlock.o)
 .debug_frame   0x00000000       0x30 /Users/e125754/etrobo/yagarto-4.6.2/bin/../lib/gcc/arm-none-eabi/4.6.2/../../../../arm-none-eabi/lib/thumb/libc.a(lib_a-mlock.o)
 .text          0x00000000      0x118 /Users/e125754/etrobo/yagarto-4.6.2/bin/../lib/gcc/arm-none-eabi/4.6.2/../../../../arm-none-eabi/lib/thumb/libc.a(lib_a-reent.o)
 .data          0x00000000        0x0 /Users/e125754/etrobo/yagarto-4.6.2/bin/../lib/gcc/arm-none-eabi/4.6.2/../../../../arm-none-eabi/lib/thumb/libc.a(lib_a-reent.o)
 .bss           0x00000000        0x0 /Users/e125754/etrobo/yagarto-4.6.2/bin/../lib/gcc/arm-none-eabi/4.6.2/../../../../arm-none-eabi/lib/thumb/libc.a(lib_a-reent.o)
 .debug_info    0x00000000      0xa64 /Users/e125754/etrobo/yagarto-4.6.2/bin/../lib/gcc/arm-none-eabi/4.6.2/../../../../arm-none-eabi/lib/thumb/libc.a(lib_a-reent.o)
 .debug_abbrev  0x00000000      0x1e6 /Users/e125754/etrobo/yagarto-4.6.2/bin/../lib/gcc/arm-none-eabi/4.6.2/../../../../arm-none-eabi/lib/thumb/libc.a(lib_a-reent.o)
 .debug_loc     0x00000000      0x1fe /Users/e125754/etrobo/yagarto-4.6.2/bin/../lib/gcc/arm-none-eabi/4.6.2/../../../../arm-none-eabi/lib/thumb/libc.a(lib_a-reent.o)
 .debug_aranges
                0x00000000       0x20 /Users/e125754/etrobo/yagarto-4.6.2/bin/../lib/gcc/arm-none-eabi/4.6.2/../../../../arm-none-eabi/lib/thumb/libc.a(lib_a-reent.o)
 .debug_line    0x00000000      0x16f /Users/e125754/etrobo/yagarto-4.6.2/bin/../lib/gcc/arm-none-eabi/4.6.2/../../../../arm-none-eabi/lib/thumb/libc.a(lib_a-reent.o)
 .debug_str     0x00000000      0x523 /Users/e125754/etrobo/yagarto-4.6.2/bin/../lib/gcc/arm-none-eabi/4.6.2/../../../../arm-none-eabi/lib/thumb/libc.a(lib_a-reent.o)
 .debug_frame   0x00000000       0x68 /Users/e125754/etrobo/yagarto-4.6.2/bin/../lib/gcc/arm-none-eabi/4.6.2/../../../../arm-none-eabi/lib/thumb/libc.a(lib_a-reent.o)
 COMMON         0x00000000        0x4 /Users/e125754/etrobo/yagarto-4.6.2/bin/../lib/gcc/arm-none-eabi/4.6.2/../../../../arm-none-eabi/lib/thumb/libc.a(lib_a-reent.o)
 .text          0x00000000      0x248 /Users/e125754/etrobo/yagarto-4.6.2/bin/../lib/gcc/arm-none-eabi/4.6.2/../../../../arm-none-eabi/lib/thumb/libc.a(lib_a-freer.o)
 .data          0x00000000        0x0 /Users/e125754/etrobo/yagarto-4.6.2/bin/../lib/gcc/arm-none-eabi/4.6.2/../../../../arm-none-eabi/lib/thumb/libc.a(lib_a-freer.o)
 .bss           0x00000000        0x0 /Users/e125754/etrobo/yagarto-4.6.2/bin/../lib/gcc/arm-none-eabi/4.6.2/../../../../arm-none-eabi/lib/thumb/libc.a(lib_a-freer.o)
 .debug_info    0x00000000      0xc40 /Users/e125754/etrobo/yagarto-4.6.2/bin/../lib/gcc/arm-none-eabi/4.6.2/../../../../arm-none-eabi/lib/thumb/libc.a(lib_a-freer.o)
 .debug_abbrev  0x00000000      0x1ea /Users/e125754/etrobo/yagarto-4.6.2/bin/../lib/gcc/arm-none-eabi/4.6.2/../../../../arm-none-eabi/lib/thumb/libc.a(lib_a-freer.o)
 .debug_loc     0x00000000      0x3b8 /Users/e125754/etrobo/yagarto-4.6.2/bin/../lib/gcc/arm-none-eabi/4.6.2/../../../../arm-none-eabi/lib/thumb/libc.a(lib_a-freer.o)
 .debug_aranges
                0x00000000       0x20 /Users/e125754/etrobo/yagarto-4.6.2/bin/../lib/gcc/arm-none-eabi/4.6.2/../../../../arm-none-eabi/lib/thumb/libc.a(lib_a-freer.o)
 .debug_line    0x00000000      0x207 /Users/e125754/etrobo/yagarto-4.6.2/bin/../lib/gcc/arm-none-eabi/4.6.2/../../../../arm-none-eabi/lib/thumb/libc.a(lib_a-freer.o)
 .debug_str     0x00000000      0x627 /Users/e125754/etrobo/yagarto-4.6.2/bin/../lib/gcc/arm-none-eabi/4.6.2/../../../../arm-none-eabi/lib/thumb/libc.a(lib_a-freer.o)
 .debug_frame   0x00000000       0x54 /Users/e125754/etrobo/yagarto-4.6.2/bin/../lib/gcc/arm-none-eabi/4.6.2/../../../../arm-none-eabi/lib/thumb/libc.a(lib_a-freer.o)
 .data          0x00000000        0x0 build/nxtvm/platform/nxt/vectors.o
 .bss           0x00000000        0x0 build/nxtvm/platform/nxt/vectors.o

Memory Configuration

Name             Origin             Length             Attributes
header_ram       0x001ffff0         0x00000010
vector_ram       0x00200000         0x00000040
ram              0x00200040         0x0000ffc0
*default*        0x00000000         0xffffffff

Linker script and memory map

LOAD build/kernel/alarm.o
LOAD build/kernel/event.o
LOAD build/kernel/interrupt.o
LOAD build/kernel/osctl.o
LOAD build/kernel/resource.o
LOAD build/kernel/task.o
LOAD build/kernel/task_manage.o
LOAD build/config/at91sam7s-gnu/cpu_config.o
LOAD build/config/at91sam7s-gnu/lego_nxt/sys_config.o
LOAD build/./kernel_cfg.o
LOAD build/syscalls.o
LOAD build/ecrobot_bluetooth.o
LOAD build/ecrobot_base.o
LOAD build/ecrobot.o
LOAD build/balancer_param.o
LOAD build/sample.o
LOAD build/syslib/at91sam7s-gnu/lego_nxt/hw_sys_timer.oram
LOAD build/nxtvm/platform/nxt/vectors.o
LOAD build/config/at91sam7s-gnu/debug.o
LOAD build/config/at91sam7s-gnu/lego_nxt/sys_support.o
LOAD build/nxt_binary_header.o
LOAD build/nxt_entry_point.o
LOAD build/ecrobot_init.o
LOAD build/config/at91sam7s-gnu/cpu_support.oram
LOAD build/config/at91sam7s-gnu/irq.oram
LOAD ../../../nxtOSEK/ecrobot/../c++/liblejososek.a
LOAD ../../../nxtOSEK/ecrobot/../ecrobot/libecrobot.a
LOAD ../../../nxtOSEK/ecrobot/../ecrobot/libnxtway_gs_balancer.a
LOAD /Users/e125754/etrobo/yagarto-4.6.2/bin/../lib/gcc/arm-none-eabi/4.6.2/../../../../arm-none-eabi/lib/thumb/libstdc++.a
LOAD /Users/e125754/etrobo/yagarto-4.6.2/bin/../lib/gcc/arm-none-eabi/4.6.2/../../../../arm-none-eabi/lib/thumb/libm.a
START GROUP
LOAD /Users/e125754/etrobo/yagarto-4.6.2/bin/../lib/gcc/arm-none-eabi/4.6.2/thumb/libgcc.a
LOAD /Users/e125754/etrobo/yagarto-4.6.2/bin/../lib/gcc/arm-none-eabi/4.6.2/../../../../arm-none-eabi/lib/thumb/libc.a
END GROUP
                0x00200000                RAM_BASE = 0x200000
                0x00010000                RAM_SIZE = 0x10000

.header         0x001ffff0       0x10
 *nxt_binary_header.o(*.text *.text.*)
 .text          0x001ffff0       0x10 build/nxt_binary_header.o
                0x00200000                . = ALIGN (0x10)

.vectors        0x00200000       0x40
 vectors.o(*.text *.text.*)
 .text          0x00200000       0x38 build/nxtvm/platform/nxt/vectors.o
                0x00200040                . = ALIGN (0x10)
 *fill*         0x00200038        0x8 00
                0x00200000                __vectors_ram_start__ = ADDR (.vectors)
                0x00200040                __vectors_ram_end__ = (ADDR (.vectors) + SIZEOF (.vectors))
                0x00200000                __vectors_load_start__ = LOADADDR (.vectors)
                0x00200040                __vectors_load_end__ = (LOADADDR (.vectors) + SIZEOF (.vectors))

.entry          0x00200040       0x40
 *nxt_entry_point.o(*.text *.text.*)
 .text          0x00200040       0x38 build/nxt_entry_point.o
                0x00200040                NXT_Entry_Point
                0x00200080                . = ALIGN (0x10)
 *fill*         0x00200078        0x8 00

.init           0x00200080      0x280
 *ecrobot_init.o(*.text *.text.*)
 .text          0x00200080      0x280 build/ecrobot_init.o
                0x00200080                start
                0x002001ec                undef_handler
                0x002001f0                swi_handler
                0x002001f4                prefetch_abort_handler
                0x002001f8                data_abort_handler
                0x00200214                reserved_handler
                0x00200300                . = ALIGN (0x10)

.ram_text       0x00200300     0x32b0
                0x00200300                . = ALIGN (0x10)
 *.oram(*.text *.text.* *.glue*)
 .text.systick_isr_C1
                0x00200300       0x28 build/syslib/at91sam7s-gnu/lego_nxt/hw_sys_timer.oram
                0x00200300                systick_isr_C1
 *fill*         0x00200328        0x8 00
 .text          0x00200330      0x230 build/config/at91sam7s-gnu/cpu_support.oram
                0x00200330                dispatch
                0x00200370                activate_r
                0x002003a0                exit_and_dispatch
                0x002003b0                start_dispatch
                0x0020046c                _interrupt
                0x002004dc                int_return
                0x00200508                disable_int
                0x00200510                enable_int
                0x00200518                nop
 .text          0x00200560      0x2c0 build/config/at91sam7s-gnu/irq.oram
                0x00200560                default_isr
                0x00200560                spurious_isr
                0x00200560                default_fiq
                0x00200564                systick_isr_entry
                0x002005ac                systick_low_priority_entry
                0x002005ec                udp_isr_entry
                0x0020062c                spi_isr_entry
                0x0020066c                twi_isr_entry
                0x002006ac                sound_isr_entry
                0x002006ec                uart_isr_entry_0
                0x0020072c                uart_isr_entry_1
                0x0020076c                nxt_motor_isr_entry
                0x002007ac                i2c_timer_isr_entry
 .text.uart_isr_C_0
                0x00200820       0x74 ../../../nxtOSEK/ecrobot/../ecrobot/libecrobot.a(uart.oram)
                0x00200820                uart_isr_C_0
 .text.uart_isr_C_1
                0x00200894        0x2 ../../../nxtOSEK/ecrobot/../ecrobot/libecrobot.a(uart.oram)
                0x00200894                uart_isr_C_1
 *fill*         0x00200896        0x2 00
 .text.systick_low_priority_C
                0x00200898       0x1c ../../../nxtOSEK/ecrobot/../ecrobot/libecrobot.a(systick.oram)
                0x00200898                systick_low_priority_C
 .text.systick_isr_C
                0x002008b4       0x24 ../../../nxtOSEK/ecrobot/../ecrobot/libecrobot.a(systick.oram)
                0x002008b4                systick_isr_C
 .text.systick_get_ms
                0x002008d8        0xc ../../../nxtOSEK/ecrobot/../ecrobot/libecrobot.a(systick.oram)
                0x002008d8                systick_get_ms
 .text.systick_wait_ms
                0x002008e4       0x1c ../../../nxtOSEK/ecrobot/../ecrobot/libecrobot.a(systick.oram)
                0x002008e4                systick_wait_ms
 .text.systick_wait_ns
                0x00200900       0x1c ../../../nxtOSEK/ecrobot/../ecrobot/libecrobot.a(systick.oram)
                0x00200900                systick_wait_ns
 .text.systick_init
                0x0020091c       0x58 ../../../nxtOSEK/ecrobot/../ecrobot/libecrobot.a(systick.oram)
                0x0020091c                systick_init
 .text.systick_suspend
                0x00200974        0xe ../../../nxtOSEK/ecrobot/../ecrobot/libecrobot.a(systick.oram)
                0x00200974                systick_suspend
 .text.systick_resume
                0x00200982        0xe ../../../nxtOSEK/ecrobot/../ecrobot/libecrobot.a(systick.oram)
                0x00200982                systick_resume
 .text.byte_fifo_put
                0x00200990       0x4a ../../../nxtOSEK/ecrobot/../ecrobot/libecrobot.a(byte_fifo.oram)
                0x00200990                byte_fifo_put
 .text.byte_fifo_get
                0x002009da       0x2c ../../../nxtOSEK/ecrobot/../ecrobot/libecrobot.a(byte_fifo.oram)
                0x002009da                byte_fifo_get
 *fill*         0x00200a06        0x2 00
 .text.aic_initialise
                0x00200a08       0x5c ../../../nxtOSEK/ecrobot/../ecrobot/libecrobot.a(aic.oram)
                0x00200a08                aic_initialise
 .text.aic_set_vector
                0x00200a64       0x30 ../../../nxtOSEK/ecrobot/../ecrobot/libecrobot.a(aic.oram)
                0x00200a64                aic_set_vector
 .text.aic_mask_on
                0x00200a94       0x24 ../../../nxtOSEK/ecrobot/../ecrobot/libecrobot.a(aic.oram)
                0x00200a94                aic_mask_on
 .text.aic_mask_off
                0x00200ab8       0x24 ../../../nxtOSEK/ecrobot/../ecrobot/libecrobot.a(aic.oram)
                0x00200ab8                aic_mask_off
 .text.aic_clear
                0x00200adc       0x24 ../../../nxtOSEK/ecrobot/../ecrobot/libecrobot.a(aic.oram)
                0x00200adc                aic_clear
 .text.reset    0x00200b00       0x4c ../../../nxtOSEK/ecrobot/../ecrobot/libecrobot.a(udp.oram)
 .text.udp_send_null
                0x00200b4c       0x2c ../../../nxtOSEK/ecrobot/../ecrobot/libecrobot.a(udp.oram)
 .text.udp_send_stall
                0x00200b78       0x2c ../../../nxtOSEK/ecrobot/../ecrobot/libecrobot.a(udp.oram)
 .text.udp_send_control
                0x00200ba4       0x54 ../../../nxtOSEK/ecrobot/../ecrobot/libecrobot.a(udp.oram)
 .text.udp_isr_C
                0x00200bf8      0x728 ../../../nxtOSEK/ecrobot/../ecrobot/libecrobot.a(udp.oram)
                0x00200bf8                udp_isr_C
 .text.twi_status
                0x00201320       0x1c ../../../nxtOSEK/ecrobot/../ecrobot/libecrobot.a(twi.oram)
                0x00201320                twi_status
 .text.twi_isr_C
                0x0020133c       0xbc ../../../nxtOSEK/ecrobot/../ecrobot/libecrobot.a(twi.oram)
                0x0020133c                twi_isr_C
 .text.twi_reset
                0x002013f8       0xc4 ../../../nxtOSEK/ecrobot/../ecrobot/libecrobot.a(twi.oram)
                0x002013f8                twi_reset
 .text.twi_init
                0x002014bc       0x4c ../../../nxtOSEK/ecrobot/../ecrobot/libecrobot.a(twi.oram)
                0x002014bc                twi_init
 .text.twi_start_read
                0x00201508       0x5c ../../../nxtOSEK/ecrobot/../ecrobot/libecrobot.a(twi.oram)
                0x00201508                twi_start_read
 .text.twi_start_write
                0x00201564       0x5c ../../../nxtOSEK/ecrobot/../ecrobot/libecrobot.a(twi.oram)
                0x00201564                twi_start_write
 .text.spi_set_mode
                0x002015c0       0x40 ../../../nxtOSEK/ecrobot/../ecrobot/libecrobot.a(nxt_spi.oram)
 .text.spi_isr_C
                0x00201600       0x6c ../../../nxtOSEK/ecrobot/../ecrobot/libecrobot.a(nxt_spi.oram)
                0x00201600                spi_isr_C
 .text.nxt_spi_init
                0x0020166c      0x140 ../../../nxtOSEK/ecrobot/../ecrobot/libecrobot.a(nxt_spi.oram)
                0x0020166c                nxt_spi_init
 .text.nxt_spi_write
                0x002017ac       0x44 ../../../nxtOSEK/ecrobot/../ecrobot/libecrobot.a(nxt_spi.oram)
                0x002017ac                nxt_spi_write
 .text.nxt_spi_set_display
                0x002017f0       0x14 ../../../nxtOSEK/ecrobot/../ecrobot/libecrobot.a(nxt_spi.oram)
                0x002017f0                nxt_spi_set_display
 .text.nxt_spi_refresh
                0x00201804       0x28 ../../../nxtOSEK/ecrobot/../ecrobot/libecrobot.a(nxt_spi.oram)
                0x00201804                nxt_spi_refresh
 .text.nxt_motor_get_count
                0x0020182c       0x18 ../../../nxtOSEK/ecrobot/../ecrobot/libecrobot.a(nxt_motors.oram)
                0x0020182c                nxt_motor_get_count
 .text.nxt_motor_set_count
                0x00201844       0x14 ../../../nxtOSEK/ecrobot/../ecrobot/libecrobot.a(nxt_motors.oram)
                0x00201844                nxt_motor_set_count
 .text.nxt_motor_set_speed
                0x00201858       0x30 ../../../nxtOSEK/ecrobot/../ecrobot/libecrobot.a(nxt_motors.oram)
                0x00201858                nxt_motor_set_speed
 .text.nxt_motor_1kHz_process
                0x00201888       0x2c ../../../nxtOSEK/ecrobot/../ecrobot/libecrobot.a(nxt_motors.oram)
                0x00201888                nxt_motor_1kHz_process
 .text.nxt_motor_quad_decode
                0x002018b4       0x48 ../../../nxtOSEK/ecrobot/../ecrobot/libecrobot.a(nxt_motors.oram)
                0x002018b4                nxt_motor_quad_decode
 .text.nxt_motor_isr_C
                0x002018fc       0x84 ../../../nxtOSEK/ecrobot/../ecrobot/libecrobot.a(nxt_motors.oram)
                0x002018fc                nxt_motor_isr_C
 .text.nxt_motor_init
                0x00201980       0x78 ../../../nxtOSEK/ecrobot/../ecrobot/libecrobot.a(nxt_motors.oram)
                0x00201980                nxt_motor_init
 .text.data_abort_C
                0x002019f8       0x7c ../../../nxtOSEK/ecrobot/../ecrobot/libecrobot.a(data_abort.oram)
                0x002019f8                data_abort_C
 .text.display_update
                0x00201a74       0x18 ../../../nxtOSEK/ecrobot/../ecrobot/libecrobot.a(display.oram)
                0x00201a74                display_update
 .text.display_force_update
                0x00201a8c        0xc ../../../nxtOSEK/ecrobot/../ecrobot/libecrobot.a(display.oram)
                0x00201a8c                display_force_update
 .text.display_clear
                0x00201a98       0x24 ../../../nxtOSEK/ecrobot/../ecrobot/libecrobot.a(display.oram)
                0x00201a98                display_clear
 .text.display_goto_xy
                0x00201abc       0x14 ../../../nxtOSEK/ecrobot/../ecrobot/libecrobot.a(display.oram)
                0x00201abc                display_goto_xy
 .text.display_char
                0x00201ad0       0x58 ../../../nxtOSEK/ecrobot/../ecrobot/libecrobot.a(display.oram)
                0x00201ad0                display_char
 .text.display_string
                0x00201b28       0x40 ../../../nxtOSEK/ecrobot/../ecrobot/libecrobot.a(display.oram)
                0x00201b28                display_string
 .text.display_unsigned_worker
                0x00201b68       0x72 ../../../nxtOSEK/ecrobot/../ecrobot/libecrobot.a(display.oram)
 *fill*         0x00201bda        0x2 00
 .text.display_hex
                0x00201bdc       0x48 ../../../nxtOSEK/ecrobot/../ecrobot/libecrobot.a(display.oram)
                0x00201bdc                display_hex
 .text.display_unsigned
                0x00201c24        0xe ../../../nxtOSEK/ecrobot/../ecrobot/libecrobot.a(display.oram)
                0x00201c24                display_unsigned
 .text.display_int
                0x00201c32       0x16 ../../../nxtOSEK/ecrobot/../ecrobot/libecrobot.a(display.oram)
                0x00201c32                display_int
 .text.display_bitmap_copy
                0x00201c48       0x78 ../../../nxtOSEK/ecrobot/../ecrobot/libecrobot.a(display.oram)
                0x00201c48                display_bitmap_copy
 .text.display_init
                0x00201cc0       0x48 ../../../nxtOSEK/ecrobot/../ecrobot/libecrobot.a(display.oram)
                0x00201cc0                display_init
 .text.i2c_timer_isr_C
                0x00201d08      0x2fc ../../../nxtOSEK/ecrobot/../ecrobot/libecrobot.a(i2c.oram)
                0x00201d08                i2c_timer_isr_C
 .text.i2c_disable
                0x00202004       0x24 ../../../nxtOSEK/ecrobot/../ecrobot/libecrobot.a(i2c.oram)
                0x00202004                i2c_disable
 .text.i2c_init
                0x00202028       0xb4 ../../../nxtOSEK/ecrobot/../ecrobot/libecrobot.a(i2c.oram)
                0x00202028                i2c_init
 .text.sound_interrupt_enable
                0x002020dc       0x1c ../../../nxtOSEK/ecrobot/../ecrobot/libecrobot.a(sound.oram)
                0x002020dc                sound_interrupt_enable
 .text.sound_interrupt_disable
                0x002020f8       0x14 ../../../nxtOSEK/ecrobot/../ecrobot/libecrobot.a(sound.oram)
                0x002020f8                sound_interrupt_disable
 .text.sound_init
                0x0020210c       0xb0 ../../../nxtOSEK/ecrobot/../ecrobot/libecrobot.a(sound.oram)
                0x0020210c                sound_init
 .text.sound_fill_sample_buffer
                0x002021bc       0xe4 ../../../nxtOSEK/ecrobot/../ecrobot/libecrobot.a(sound.oram)
                0x002021bc                sound_fill_sample_buffer
 .text.sound_isr_C
                0x002022a0      0x108 ../../../nxtOSEK/ecrobot/../ecrobot/libecrobot.a(sound.oram)
                0x002022a0                sound_isr_C
 .text.bt_init  0x002023a8      0x1d4 ../../../nxtOSEK/ecrobot/../ecrobot/libecrobot.a(bt.oram)
                0x002023a8                bt_init
 .text.bt_send  0x0020257c       0x4c ../../../nxtOSEK/ecrobot/../ecrobot/libecrobot.a(bt.oram)
                0x0020257c                bt_send
 .text.bt_write
                0x002025c8       0x58 ../../../nxtOSEK/ecrobot/../ecrobot/libecrobot.a(bt.oram)
                0x002025c8                bt_write
 .text.bt_pending
                0x00202620       0x54 ../../../nxtOSEK/ecrobot/../ecrobot/libecrobot.a(bt.oram)
                0x00202620                bt_pending
 .text.bt_clear_arm7_cmd
                0x00202674       0x10 ../../../nxtOSEK/ecrobot/../ecrobot/libecrobot.a(bt.oram)
                0x00202674                bt_clear_arm7_cmd
 .text.bt_set_arm7_cmd
                0x00202684       0x10 ../../../nxtOSEK/ecrobot/../ecrobot/libecrobot.a(bt.oram)
                0x00202684                bt_set_arm7_cmd
 .text.bt_receive
                0x00202694      0x120 ../../../nxtOSEK/ecrobot/../ecrobot/libecrobot.a(bt.oram)
                0x00202694                bt_receive
 .text.bt_read  0x002027b4      0x124 ../../../nxtOSEK/ecrobot/../ecrobot/libecrobot.a(bt.oram)
                0x002027b4                bt_read
 .text.bt_reset
                0x002028d8       0x88 ../../../nxtOSEK/ecrobot/../ecrobot/libecrobot.a(bt.oram)
                0x002028d8                bt_reset
 .text.nxt_avr_power_down
                0x00202960       0x10 ../../../nxtOSEK/ecrobot/../ecrobot/libecrobot.a(nxt_avr.oram)
                0x00202960                nxt_avr_power_down
 .text.nxt_avr_link_init
                0x00202970       0x20 ../../../nxtOSEK/ecrobot/../ecrobot/libecrobot.a(nxt_avr.oram)
                0x00202970                nxt_avr_link_init
 .text.nxt_avr_init
                0x00202990       0x68 ../../../nxtOSEK/ecrobot/../ecrobot/libecrobot.a(nxt_avr.oram)
                0x00202990                nxt_avr_init
 .text.nxt_avr_1kHz_update
                0x002029f8      0x1b0 ../../../nxtOSEK/ecrobot/../ecrobot/libecrobot.a(nxt_avr.oram)
                0x002029f8                nxt_avr_1kHz_update
 .text.buttons_get
                0x00202ba8        0xc ../../../nxtOSEK/ecrobot/../ecrobot/libecrobot.a(nxt_avr.oram)
                0x00202ba8                buttons_get
 .text.battery_voltage
                0x00202bb4       0x20 ../../../nxtOSEK/ecrobot/../ecrobot/libecrobot.a(nxt_avr.oram)
                0x00202bb4                battery_voltage
 .text.sensor_adc
                0x00202bd4       0x24 ../../../nxtOSEK/ecrobot/../ecrobot/libecrobot.a(nxt_avr.oram)
                0x00202bd4                sensor_adc
 .text.nxt_avr_set_motor
                0x00202bf8       0x28 ../../../nxtOSEK/ecrobot/../ecrobot/libecrobot.a(nxt_avr.oram)
                0x00202bf8                nxt_avr_set_motor
 .text.nxt_avr_set_input_power
                0x00202c20       0x3c ../../../nxtOSEK/ecrobot/../ecrobot/libecrobot.a(nxt_avr.oram)
                0x00202c20                nxt_avr_set_input_power
 .text.set_digi0
                0x00202c5c       0x48 ../../../nxtOSEK/ecrobot/../ecrobot/libecrobot.a(sensors.oram)
                0x00202c5c                set_digi0
 .text.unset_digi0
                0x00202ca4       0x48 ../../../nxtOSEK/ecrobot/../ecrobot/libecrobot.a(sensors.oram)
                0x00202ca4                unset_digi0
 .text.unset_digi1
                0x00202cec       0x48 ../../../nxtOSEK/ecrobot/../ecrobot/libecrobot.a(sensors.oram)
                0x00202cec                unset_digi1
 .text.init_sensors
                0x00202d34       0x58 ../../../nxtOSEK/ecrobot/../ecrobot/libecrobot.a(sensors.oram)
                0x00202d34                init_sensors
 .text.nxt_lcd_command
                0x00202d8c       0x16 ../../../nxtOSEK/ecrobot/../ecrobot/libecrobot.a(nxt_lcd.oram)
                0x00202d8c                nxt_lcd_command
 .text.nxt_lcd_set_col
                0x00202da2       0x1e ../../../nxtOSEK/ecrobot/../ecrobot/libecrobot.a(nxt_lcd.oram)
                0x00202da2                nxt_lcd_set_col
 .text.nxt_lcd_set_multiplex_rate
                0x00202dc0       0x14 ../../../nxtOSEK/ecrobot/../ecrobot/libecrobot.a(nxt_lcd.oram)
                0x00202dc0                nxt_lcd_set_multiplex_rate
 .text.nxt_lcd_set_page_address
                0x00202dd4       0x14 ../../../nxtOSEK/ecrobot/../ecrobot/libecrobot.a(nxt_lcd.oram)
                0x00202dd4                nxt_lcd_set_page_address
 .text.nxt_lcd_set_pot
                0x00202de8       0x18 ../../../nxtOSEK/ecrobot/../ecrobot/libecrobot.a(nxt_lcd.oram)
                0x00202de8                nxt_lcd_set_pot
 .text.nxt_lcd_set_ram_address_control
                0x00202e00       0x14 ../../../nxtOSEK/ecrobot/../ecrobot/libecrobot.a(nxt_lcd.oram)
                0x00202e00                nxt_lcd_set_ram_address_control
 .text.nxt_lcd_enable
                0x00202e14       0x14 ../../../nxtOSEK/ecrobot/../ecrobot/libecrobot.a(nxt_lcd.oram)
                0x00202e14                nxt_lcd_enable
 .text.nxt_lcd_set_map_control
                0x00202e28       0x16 ../../../nxtOSEK/ecrobot/../ecrobot/libecrobot.a(nxt_lcd.oram)
                0x00202e28                nxt_lcd_set_map_control
 .text.nxt_lcd_reset
                0x00202e3e        0xe ../../../nxtOSEK/ecrobot/../ecrobot/libecrobot.a(nxt_lcd.oram)
                0x00202e3e                nxt_lcd_reset
 .text.nxt_lcd_set_bias_ratio
                0x00202e4c       0x14 ../../../nxtOSEK/ecrobot/../ecrobot/libecrobot.a(nxt_lcd.oram)
                0x00202e4c                nxt_lcd_set_bias_ratio
 .text.nxt_lcd_force_update
                0x00202e60       0x30 ../../../nxtOSEK/ecrobot/../ecrobot/libecrobot.a(nxt_lcd.oram)
                0x00202e60                nxt_lcd_force_update
 .text.nxt_lcd_update
                0x00202e90        0xc ../../../nxtOSEK/ecrobot/../ecrobot/libecrobot.a(nxt_lcd.oram)
                0x00202e90                nxt_lcd_update
 .text.nxt_lcd_power_up
                0x00202e9c       0x48 ../../../nxtOSEK/ecrobot/../ecrobot/libecrobot.a(nxt_lcd.oram)
                0x00202e9c                nxt_lcd_power_up
 .text.nxt_lcd_power_down
                0x00202ee4        0xc ../../../nxtOSEK/ecrobot/../ecrobot/libecrobot.a(nxt_lcd.oram)
                0x00202ee4                nxt_lcd_power_down
 .text.nxt_lcd_init
                0x00202ef0       0x18 ../../../nxtOSEK/ecrobot/../ecrobot/libecrobot.a(nxt_lcd.oram)
                0x00202ef0                nxt_lcd_init
 .text.verify_flash_page
                0x00202f08       0x2e ../../../nxtOSEK/ecrobot/../ecrobot/libecrobot.a(flash_loader.oram)
 *fill*         0x00202f36        0x2 00
 .text.set_flash_request
                0x00202f38       0x38 ../../../nxtOSEK/ecrobot/../ecrobot/libecrobot.a(flash_loader.oram)
                0x00202f38                set_flash_request
 .text.nxt_device_init
                0x00202f70       0x38 ../../../nxtOSEK/ecrobot/../ecrobot/libecrobot.a(flash_loader.oram)
                0x00202f70                nxt_device_init
 .text          0x00202fa8       0x68 ../../../nxtOSEK/ecrobot/../ecrobot/libecrobot.a(interrupts.oram)
                0x00202fa8                interrupts_get_and_disable
                0x00202fcc                interrupts_enable
                0x00202fdc                fiq_get_and_disable
                0x00203000                fiq_enable
 .text.flash_write_page
                0x00203010       0xb8 ../../../nxtOSEK/ecrobot/../ecrobot/libecrobot.a(flashprog.oram)
                0x00203010                flash_write_page
 .text.flash_write_page.stub
                0x002030c8       0x38 linker stubs
                0x00203100                . = ALIGN (0x10)
 *fill*         0x00203108        0x8 00
 *.oram(*.rodata *.rodata.*)
 .rodata.dd     0x00203110       0x12 ../../../nxtOSEK/ecrobot/../ecrobot/libecrobot.a(udp.oram)
 .rodata.ld     0x00203122        0x4 ../../../nxtOSEK/ecrobot/../ecrobot/libecrobot.a(udp.oram)
 .rodata.cfd    0x00203126       0x20 ../../../nxtOSEK/ecrobot/../ecrobot/libecrobot.a(udp.oram)
 .rodata.str1.1
                0x00203146       0x1d ../../../nxtOSEK/ecrobot/../ecrobot/libecrobot.a(data_abort.oram)
 .rodata.str1.1
                0x00203163       0x67 ../../../nxtOSEK/ecrobot/../ecrobot/libecrobot.a(display.oram)
 .rodata.font   0x002031ca      0x280 ../../../nxtOSEK/ecrobot/../ecrobot/libecrobot.a(display.oram)
 *fill*         0x0020344a        0x2 00
 .rodata.i2c_pin
                0x0020344c       0x20 ../../../nxtOSEK/ecrobot/../ecrobot/libecrobot.a(i2c.oram)
 .rodata        0x0020346c        0x9 ../../../nxtOSEK/ecrobot/../ecrobot/libecrobot.a(sound.oram)
 *fill*         0x00203475        0x3 00
 .rodata.sample_pattern
                0x00203478       0x84 ../../../nxtOSEK/ecrobot/../ecrobot/libecrobot.a(sound.oram)
                0x00203478                sample_pattern
 .rodata.silence
                0x002034fc       0x40 ../../../nxtOSEK/ecrobot/../ecrobot/libecrobot.a(sound.oram)
                0x002034fc                silence
 .rodata.avr_brainwash_string
                0x0020353c       0x30 ../../../nxtOSEK/ecrobot/../ecrobot/libecrobot.a(nxt_avr.oram)
                0x0020353c                avr_brainwash_string
 .rodata        0x0020356c       0x20 ../../../nxtOSEK/ecrobot/../ecrobot/libecrobot.a(sensors.oram)
 .rodata.str1.1
                0x0020358c       0x21 ../../../nxtOSEK/ecrobot/../ecrobot/libecrobot.a(flash_loader.oram)
                0x002035b0                . = ALIGN (0x10)
 *fill*         0x002035ad        0x3 00
                0x00200300                __ramtext_ram_start__ = ADDR (.ram_text)
                0x002035b0                __ramtext_ram_end__ = (ADDR (.ram_text) + SIZEOF (.ram_text))
                0x00200300                __ramtext_load_start__ = LOADADDR (.ram_text)
                0x002035b0                __ramtext_load_end__ = (__ramtext_load_start__ + SIZEOF (.ram_text))

.wav_data       0x002035b0        0x0
 *.owav(*.data *.data.*)
                0x002035b0                . = ALIGN (0x10)

.bmp_data       0x002035b0      0x440
 *.obmp(*.data *.data.*)
 .data          0x002035b0      0x43e ../../../nxtOSEK/ecrobot/../ecrobot/libecrobot.a(nxtosek_splash.obmp)
                0x002035b0                nxtosek_splash_bmp_start
                0x002039ee                nxtosek_splash_bmp_end
                0x002039f0                . = ALIGN (0x10)
 *fill*         0x002039ee        0x2 00

.spr_data       0x002039f0        0x0
 *.ospr(*.data *.data.*)
                0x002039f0                . = ALIGN (0x10)

.data           0x002039f0      0x4b0
 *(*.data *.data.*)
 .data.bt_status
                0x002039f0        0x1 build/ecrobot_bluetooth.o
 *fill*         0x002039f1        0x3 00
 .data.A_D      0x002039f4        0x4 build/balancer_param.o
                0x002039f4                A_D
 .data.K_THETADOT
                0x002039f8        0x4 build/balancer_param.o
                0x002039f8                K_THETADOT
 .data.K_F      0x002039fc       0x10 build/balancer_param.o
                0x002039fc                K_F
 .data.K_I      0x00203a0c        0x4 build/balancer_param.o
                0x00203a0c                K_I
 .data.A_R      0x00203a10        0x4 build/balancer_param.o
                0x00203a10                A_R
 .data.K_PHIDOT
                0x00203a14        0x4 build/balancer_param.o
                0x00203a14                K_PHIDOT
 .data.deviceStatus
                0x00203a18        0x1 ../../../nxtOSEK/ecrobot/../ecrobot/libecrobot.a(ecrobot_interface.o)
 .data.named    0x00203a19       0x22 ../../../nxtOSEK/ecrobot/../ecrobot/libecrobot.a(udp.oram)
 .data.snd      0x00203a3b       0x1a ../../../nxtOSEK/ecrobot/../ecrobot/libecrobot.a(udp.oram)
 *fill*         0x00203a55        0x3 00
 .data.configured
                0x00203a58        0x4 ../../../nxtOSEK/ecrobot/../ecrobot/libecrobot.a(udp.oram)
 .bss.data      0x00203a5c        0x4 ../../../nxtOSEK/ecrobot/../ecrobot/libecrobot.a(nxt_spi.oram)
                0x00203a5c                data
 .data.mode     0x00203a60        0x1 ../../../nxtOSEK/ecrobot/../ecrobot/libecrobot.a(nxt_spi.oram)
                0x00203a60                mode
 *fill*         0x00203a61        0x3 00
 .data.display_auto_update
                0x00203a64        0x4 ../../../nxtOSEK/ecrobot/../ecrobot/libecrobot.a(display.oram)
                0x00203a64                display_auto_update
 .data          0x00203a68      0x430 /Users/e125754/etrobo/yagarto-4.6.2/bin/../lib/gcc/arm-none-eabi/4.6.2/../../../../arm-none-eabi/lib/thumb/libc.a(lib_a-impure.o)
                0x00203a68                _impure_ptr
                0x00203ea0                . = ALIGN (0x10)
 *fill*         0x00203e98        0x8 00
                0x002039f0                __data_ram_start__ = ADDR (.data)
                0x00203ea0                __data_ram_end__ = (ADDR (.data) + SIZEOF (.data))
                0x002039f0                __data_load_start__ = LOADADDR (.data)
                0x00203ea0                __data_load_end__ = (__data_load_start__ + SIZEOF (.data))

.text           0x00203ea0     0x1cb0
                0x00203ea0                . = ALIGN (0x10)
 *(.text .text.* *.glue*)
 .glue_7        0x00000000        0x0 linker stubs
 .glue_7t       0x00000000        0x0 linker stubs
 .text.call_posttaskhook
                0x00203ea0       0x24 build/kernel/osctl.o
                0x00203ea0                call_posttaskhook
 .text.call_pretaskhook
                0x00203ec4       0x24 build/kernel/osctl.o
                0x00203ec4                call_pretaskhook
 .text.StartOS  0x00203ee8       0x54 build/kernel/osctl.o
                0x00203ee8                StartOS
 .text.make_runnable
                0x00203f3c       0x98 build/kernel/task.o
                0x00203f3c                make_runnable
 .text.make_active
                0x00203fd4       0x74 build/kernel/task.o
                0x00203fd4                make_active
 .text.task_initialize
                0x00204048       0x80 build/kernel/task.o
                0x00204048                task_initialize
 .text.cpu_initialize
                0x002040c8        0x2 build/config/at91sam7s-gnu/cpu_config.o
                0x002040c8                cpu_initialize
 .text.sys_initialize
                0x002040ca        0x2 build/config/at91sam7s-gnu/lego_nxt/sys_config.o
                0x002040ca                sys_initialize
 .text.object_initialize
                0x002040cc        0xc build/./kernel_cfg.o
                0x002040cc                object_initialize
 .text.send_bt_command
                0x002040d8       0x3c build/ecrobot_bluetooth.o
 .text.close_bt_stream
                0x00204114       0x28 build/ecrobot_bluetooth.o
 .text.open_bt_stream
                0x0020413c       0x44 build/ecrobot_bluetooth.o
 .text.read_bt_command.constprop.2
                0x00204180       0x60 build/ecrobot_bluetooth.o
 .text.ecrobot_get_bt_device_address
                0x002041e0       0x64 build/ecrobot_bluetooth.o
                0x002041e0                ecrobot_get_bt_device_address
 .text.ecrobot_set_bt_device_name
                0x00204244       0x44 build/ecrobot_bluetooth.o
                0x00204244                ecrobot_set_bt_device_name
 .text.ecrobot_init_bt_slave
                0x00204288       0xfc build/ecrobot_bluetooth.o
                0x00204288                ecrobot_init_bt_slave
 .text.ecrobot_term_bt_connection
                0x00204384       0x40 build/ecrobot_bluetooth.o
                0x00204384                ecrobot_term_bt_connection
 .text.ecrobot_send_bt
                0x002043c4       0x3c build/ecrobot_bluetooth.o
                0x002043c4                ecrobot_send_bt
 .text.ecrobot_read_bt
                0x00204400       0x24 build/ecrobot_bluetooth.o
                0x00204400                ecrobot_read_bt
 .text.init_OS_flag
                0x00204424        0xc build/ecrobot_base.o
                0x00204424                init_OS_flag
 .text.set_OS_flag
                0x00204430        0xc build/ecrobot_base.o
                0x00204430                set_OS_flag
 .text.get_OS_flag
                0x0020443c        0xc build/ecrobot_base.o
                0x0020443c                get_OS_flag
 .text.cpp_constructor
                0x00204448       0x28 build/ecrobot_base.o
                0x00204448                cpp_constructor
 .text.cpp_destructor
                0x00204470        0xe build/ecrobot_base.o
                0x00204470                cpp_destructor
 *fill*         0x0020447e        0x2 00
 .text.execution_mode
                0x00204480       0x14 build/ecrobot_base.o
                0x00204480                execution_mode
 .text.show_splash_screen
                0x00204494       0x98 build/ecrobot_base.o
                0x00204494                show_splash_screen
 .text.show_main_screen
                0x0020452c       0x48 build/ecrobot_base.o
                0x0020452c                show_main_screen
 .text.display_status_bar
                0x00204574       0x5c build/ecrobot_base.o
                0x00204574                display_status_bar
 .text.show_bd_addr
                0x002045d0       0x44 build/ecrobot_base.o
                0x002045d0                show_bd_addr
 .text.show_bd_addr_err
                0x00204614       0x3c build/ecrobot_base.o
                0x00204614                show_bd_addr_err
 .text.add_status_info
                0x00204650       0x68 build/ecrobot_base.o
                0x00204650                add_status_info
 .text.restart_NXT
                0x002046b8       0x2e build/ecrobot_base.o
                0x002046b8                restart_NXT
 .text.shutdown_NXT
                0x002046e6       0x2e build/ecrobot_base.o
                0x002046e6                shutdown_NXT
 .text.check_NXT_buttons
                0x00204714       0x3c build/ecrobot_base.o
                0x00204714                check_NXT_buttons
 .text.startup.main
                0x00204750      0x108 build/ecrobot.o
                0x00204750                main
 .text.ecrobot_device_initialize
                0x00204858       0x18 build/sample.o
                0x00204858                ecrobot_device_initialize
 .text.ecrobot_device_terminate
                0x00204870       0x12 build/sample.o
                0x00204870                ecrobot_device_terminate
 .text.user_1ms_isr_type2
                0x00204882        0x2 build/sample.o
                0x00204882                user_1ms_isr_type2
 .text.TaskMainTaskMain
                0x00204884      0x138 build/sample.o
                0x00204884                TaskMainTaskMain
 .text.ecrobot_get_gyro_sensor
                0x002049bc       0x10 ../../../nxtOSEK/ecrobot/../ecrobot/libecrobot.a(ecrobot_HiTechnic.o)
                0x002049bc                ecrobot_get_gyro_sensor
 .text.ecrobot_set_light_sensor_active
                0x002049cc        0xc ../../../nxtOSEK/ecrobot/../ecrobot/libecrobot.a(ecrobot_interface.o)
                0x002049cc                ecrobot_set_light_sensor_active
 .text.ecrobot_set_light_sensor_inactive
                0x002049d8        0xc ../../../nxtOSEK/ecrobot/../ecrobot/libecrobot.a(ecrobot_interface.o)
                0x002049d8                ecrobot_set_light_sensor_inactive
 .text.ecrobot_get_light_sensor
                0x002049e4       0x10 ../../../nxtOSEK/ecrobot/../ecrobot/libecrobot.a(ecrobot_interface.o)
                0x002049e4                ecrobot_get_light_sensor
 .text.ecrobot_get_battery_voltage
                0x002049f4        0xc ../../../nxtOSEK/ecrobot/../ecrobot/libecrobot.a(ecrobot_interface.o)
                0x002049f4                ecrobot_get_battery_voltage
 .text.ecrobot_init_nxtstate
                0x00204a00       0x28 ../../../nxtOSEK/ecrobot/../ecrobot/libecrobot.a(ecrobot_interface.o)
                0x00204a00                ecrobot_init_nxtstate
 .text.ecrobot_get_button_state
                0x00204a28        0xc ../../../nxtOSEK/ecrobot/../ecrobot/libecrobot.a(ecrobot_interface.o)
                0x00204a28                ecrobot_get_button_state
 .text.ecrobot_poll_nxtstate
                0x00204a34       0x60 ../../../nxtOSEK/ecrobot/../ecrobot/libecrobot.a(ecrobot_interface.o)
                0x00204a34                ecrobot_poll_nxtstate
 .text.ecrobot_setDeviceInitialized
                0x00204a94       0x18 ../../../nxtOSEK/ecrobot/../ecrobot/libecrobot.a(ecrobot_interface.o)
                0x00204a94                ecrobot_setDeviceInitialized
 .text.ecrobot_initDeviceStatus
                0x00204aac        0xc ../../../nxtOSEK/ecrobot/../ecrobot/libecrobot.a(ecrobot_interface.o)
                0x00204aac                ecrobot_initDeviceStatus
 .text.ecrobot_bmp2lcd
                0x00204ab8      0x1b0 ../../../nxtOSEK/ecrobot/../ecrobot/libecrobot.a(ecrobot_interface.o)
                0x00204ab8                ecrobot_bmp2lcd
 .text.StartupHook
                0x00204c68        0x2 ../../../nxtOSEK/ecrobot/../ecrobot/libecrobot.a(osek_hook.o)
                0x00204c68                StartupHook
 .text.PreTaskHook
                0x00204c6a        0x2 ../../../nxtOSEK/ecrobot/../ecrobot/libecrobot.a(osek_hook.o)
                0x00204c6a                PreTaskHook
 .text.PostTaskHook
                0x00204c6c        0x2 ../../../nxtOSEK/ecrobot/../ecrobot/libecrobot.a(osek_hook.o)
                0x00204c6c                PostTaskHook
 *fill*         0x00204c6e        0x2 00
 .text.balance_control
                0x00204c70      0x24c ../../../nxtOSEK/ecrobot/../ecrobot/libnxtway_gs_balancer.a(balancer.o)
                0x00204c70                balance_control
 .text.balance_init
                0x00204ebc       0x2c ../../../nxtOSEK/ecrobot/../ecrobot/libnxtway_gs_balancer.a(balancer.o)
                0x00204ebc                balance_init
 .text          0x00204ee8       0x14 /Users/e125754/etrobo/yagarto-4.6.2/bin/../lib/gcc/arm-none-eabi/4.6.2/thumb/libgcc.a(_thumb1_case_uqi.o)
                0x00204ee8                __gnu_thumb1_case_uqi
 .text          0x00204efc       0x14 /Users/e125754/etrobo/yagarto-4.6.2/bin/../lib/gcc/arm-none-eabi/4.6.2/thumb/libgcc.a(_thumb1_case_uhi.o)
                0x00204efc                __gnu_thumb1_case_uhi
 .text          0x00204f10      0x11c /Users/e125754/etrobo/yagarto-4.6.2/bin/../lib/gcc/arm-none-eabi/4.6.2/thumb/libgcc.a(_udivsi3.o)
                0x00204f10                __udivsi3
                0x00204f10                __aeabi_uidiv
                0x0020500c                __aeabi_uidivmod
 .text          0x0020502c        0x4 /Users/e125754/etrobo/yagarto-4.6.2/bin/../lib/gcc/arm-none-eabi/4.6.2/thumb/libgcc.a(_dvmd_tls.o)
                0x0020502c                __aeabi_ldiv0
                0x0020502c                __aeabi_idiv0
 .text          0x00205030      0x2ac /Users/e125754/etrobo/yagarto-4.6.2/bin/../lib/gcc/arm-none-eabi/4.6.2/thumb/libgcc.a(_arm_addsubsf3.o)
                0x00205030                __aeabi_frsub
                0x00205038                __aeabi_fsub
                0x00205038                __subsf3
                0x0020503c                __aeabi_fadd
                0x0020503c                __addsf3
                0x002051f8                __aeabi_ui2f
                0x002051f8                __floatunsisf
                0x00205200                __floatsisf
                0x00205200                __aeabi_i2f
                0x00205220                __aeabi_ul2f
                0x00205220                __floatundisf
                0x00205230                __aeabi_l2f
                0x00205230                __floatdisf
 .text          0x002052dc      0x2f8 /Users/e125754/etrobo/yagarto-4.6.2/bin/../lib/gcc/arm-none-eabi/4.6.2/thumb/libgcc.a(_arm_muldivsf3.o)
                0x002052dc                __mulsf3
                0x002052dc                __aeabi_fmul
                0x00205474                __divsf3
                0x00205474                __aeabi_fdiv
 .text          0x002055d4      0x114 /Users/e125754/etrobo/yagarto-4.6.2/bin/../lib/gcc/arm-none-eabi/4.6.2/thumb/libgcc.a(_arm_cmpsf2.o)
                0x002055d4                __gesf2
                0x002055d4                __gtsf2
                0x002055dc                __ltsf2
                0x002055dc                __lesf2
                0x002055e4                __nesf2
                0x002055e4                __eqsf2
                0x002055e4                __cmpsf2
                0x00205648                __aeabi_cfrcmple
                0x00205658                __aeabi_cfcmpeq
                0x00205658                __aeabi_cfcmple
                0x00205670                __aeabi_fcmpeq
                0x00205688                __aeabi_fcmplt
                0x002056a0                __aeabi_fcmple
                0x002056b8                __aeabi_fcmpge
                0x002056d0                __aeabi_fcmpgt
 .text          0x002056e8       0x5c /Users/e125754/etrobo/yagarto-4.6.2/bin/../lib/gcc/arm-none-eabi/4.6.2/thumb/libgcc.a(_arm_fixsfsi.o)
                0x002056e8                __fixsfsi
                0x002056e8                __aeabi_f2iz
 .text          0x00205744       0x10 /Users/e125754/etrobo/yagarto-4.6.2/bin/../lib/gcc/arm-none-eabi/4.6.2/../../../../arm-none-eabi/lib/thumb/libc.a(lib_a-cxa_finalize.o)
                0x00205744                __cxa_finalize
 .text          0x00205754       0x80 /Users/e125754/etrobo/yagarto-4.6.2/bin/../lib/gcc/arm-none-eabi/4.6.2/../../../../arm-none-eabi/lib/thumb/libc.a(lib_a-memcpy.o)
                0x00205754                memcpy
 .text          0x002057d4       0x98 /Users/e125754/etrobo/yagarto-4.6.2/bin/../lib/gcc/arm-none-eabi/4.6.2/../../../../arm-none-eabi/lib/thumb/libc.a(lib_a-memset.o)
                0x002057d4                memset
 .text          0x0020586c       0x10 /Users/e125754/etrobo/yagarto-4.6.2/bin/../lib/gcc/arm-none-eabi/4.6.2/../../../../arm-none-eabi/lib/thumb/libc.a(lib_a-strcpy.o)
                0x0020586c                strcpy
 .text          0x0020587c       0x10 /Users/e125754/etrobo/yagarto-4.6.2/bin/../lib/gcc/arm-none-eabi/4.6.2/../../../../arm-none-eabi/lib/thumb/libc.a(lib_a-strlen.o)
                0x0020587c                strlen
 .text          0x0020588c       0x78 /Users/e125754/etrobo/yagarto-4.6.2/bin/../lib/gcc/arm-none-eabi/4.6.2/../../../../arm-none-eabi/lib/thumb/libc.a(lib_a-strncpy.o)
                0x0020588c                strncpy
 .text          0x00205904      0x114 /Users/e125754/etrobo/yagarto-4.6.2/bin/../lib/gcc/arm-none-eabi/4.6.2/../../../../arm-none-eabi/lib/thumb/libc.a(lib_a-__call_atexit.o)
                0x00205904                __call_exitprocs
 .text.stub     0x00205a18       0x7c linker stubs
                0x00205aa0                . = ALIGN (0x10)
 *fill*         0x00205a98        0x8 00
 *(*.rodata *.rodata.*)
 .rodata.tnum_task
                0x00205aa0        0x1 build/./kernel_cfg.o
                0x00205aa0                tnum_task
 *fill*         0x00205aa1        0x1 00
 .rodata.tinib_stksz
                0x00205aa2        0x2 build/./kernel_cfg.o
                0x00205aa2                tinib_stksz
 .rodata.tinib_inipri
                0x00205aa4        0x1 build/./kernel_cfg.o
                0x00205aa4                tinib_inipri
 *fill*         0x00205aa5        0x3 00
 .rodata.tinib_stk
                0x00205aa8        0x4 build/./kernel_cfg.o
                0x00205aa8                tinib_stk
 .rodata.tnum_exttask
                0x00205aac        0x1 build/./kernel_cfg.o
                0x00205aac                tnum_exttask
 .rodata.tinib_exepri
                0x00205aad        0x1 build/./kernel_cfg.o
                0x00205aad                tinib_exepri
 .rodata.tinib_autoact
                0x00205aae        0x1 build/./kernel_cfg.o
                0x00205aae                tinib_autoact
 *fill*         0x00205aaf        0x1 00
 .rodata.tinib_task
                0x00205ab0        0x4 build/./kernel_cfg.o
                0x00205ab0                tinib_task
 .rodata.str1.1
                0x00205ab4       0x6c build/ecrobot_base.o
 .rodata.exec_addr
                0x00205b20        0x4 build/ecrobot_base.o
                0x00205b20                exec_addr
 .rodata.BATTERY_OFFSET
                0x00205b24        0x4 build/balancer_param.o
                0x00205b24                BATTERY_OFFSET
 .rodata.BATTERY_GAIN
                0x00205b28        0x4 build/balancer_param.o
                0x00205b28                BATTERY_GAIN
 .rodata.str1.1
                0x00205b2c       0x15 build/sample.o
 *fill*         0x00205b41        0x3 00
 .rodata        0x00205b44        0x4 /Users/e125754/etrobo/yagarto-4.6.2/bin/../lib/gcc/arm-none-eabi/4.6.2/../../../../arm-none-eabi/lib/thumb/libc.a(lib_a-impure.o)
                0x00205b44                _global_impure_ptr
 .rodata.str1.4
                0x00205b48        0x4 /Users/e125754/etrobo/yagarto-4.6.2/bin/../lib/gcc/arm-none-eabi/4.6.2/../../../../arm-none-eabi/lib/thumb/libc.a(lib_a-impure.o)
                0x00205b50                . = ALIGN (0x10)
 *fill*         0x00205b4c        0x4 00
 *(*.gnu.linkonce.* .gcc_except_table)
                0x00205b50                . = ALIGN (0x10)

.vfp11_veneer   0x00205b50        0x0
 .vfp11_veneer  0x00000000        0x0 linker stubs

.v4_bx          0x00205b50        0x0
 .v4_bx         0x00000000        0x0 linker stubs

.ARM.exidx      0x00205b50        0x0
                0x00205b50                __exidx_start = .
 *(.ARM.exidx* .gnu.linkonce.armexidx.*)
 */()
                0x00205b50                __exidx_end = .

.tors           0x00205b50        0x0
                0x00205b50                . = ALIGN (0x10)
                0x00205b50                __ctor_begin = .
 *(*.ctors*)
 *(.init_array)
                0x00205b50                __ctor_end = .
                0x00205b50                . = ALIGN (0x10)
                0x00205b50                __dtor_begin = .
 *(*.dtors*)
 *(.fini_array)
                0x00205b50                __dtor_end = .
                0x00205b50                . = ALIGN (0x10)

.bss            0x00205b50     0x1430
 *(*.bss *.bss.*)
 .bss.ready_queue_first
                0x00205b50       0x10 build/kernel/task.o
 .bss.ready_primap
                0x00205b60        0x2 build/kernel/task.o
 .bss.ready_queue_last
                0x00205b62       0x10 build/kernel/task.o
 *fill*         0x00205b72        0x2 00
 .bss._stack_TaskMain
                0x00205b74      0x200 build/./kernel_cfg.o
 .bss.receiveBuf
                0x00205d74       0x80 build/ecrobot_bluetooth.o
 .bss.sendBuf   0x00205df4      0x100 build/ecrobot_bluetooth.o
 .bss.handle    0x00205ef4        0x1 build/ecrobot_bluetooth.o
 *fill*         0x00205ef5        0x3 00
 .bss.last_act_time.2836
                0x00205ef8        0x4 build/ecrobot_base.o
 .bss.lcd.2794  0x00205efc      0x320 build/ecrobot_base.o
 .bss.status_bar_position
                0x0020621c        0x4 build/ecrobot_base.o
 .bss.status_bar
                0x00206220       0x10 build/ecrobot_base.o
 .bss.OS_flag   0x00206230        0x4 build/ecrobot_base.o
 .bss.ecrobot_inputs
                0x00206234        0x8 ../../../nxtOSEK/ecrobot/../ecrobot/libecrobot.a(ecrobot_interface.o)
 .bss.buttons_states
                0x0020623c       0x14 ../../../nxtOSEK/ecrobot/../ecrobot/libecrobot.a(ecrobot_interface.o)
 .bss.buttons_i
                0x00206250        0x4 ../../../nxtOSEK/ecrobot/../ecrobot/libecrobot.a(ecrobot_interface.o)
 .bss.systick_ms
                0x00206254        0x4 ../../../nxtOSEK/ecrobot/../ecrobot/libecrobot.a(systick.oram)
 .bss.newAddress
                0x00206258        0x4 ../../../nxtOSEK/ecrobot/../ecrobot/libecrobot.a(udp.oram)
 .bss.outCnt    0x0020625c        0x4 ../../../nxtOSEK/ecrobot/../ecrobot/libecrobot.a(udp.oram)
 .bss.currentConfig
                0x00206260        0x1 ../../../nxtOSEK/ecrobot/../ecrobot/libecrobot.a(udp.oram)
 *fill*         0x00206261        0x3 00
 .bss.outPtr    0x00206264        0x4 ../../../nxtOSEK/ecrobot/../ecrobot/libecrobot.a(udp.oram)
 .bss.currentFeatures
                0x00206268        0x4 ../../../nxtOSEK/ecrobot/../ecrobot/libecrobot.a(udp.oram)
 .bss.delayedEnable
                0x0020626c        0x1 ../../../nxtOSEK/ecrobot/../ecrobot/libecrobot.a(udp.oram)
 *fill*         0x0020626d        0x3 00
 .bss.currentRxBank
                0x00206270        0x4 ../../../nxtOSEK/ecrobot/../ecrobot/libecrobot.a(udp.oram)
 .bss.twi_state
                0x00206274        0x1 ../../../nxtOSEK/ecrobot/../ecrobot/libecrobot.a(twi.oram)
 *fill*         0x00206275        0x3 00
 .bss.twi_ptr   0x00206278        0x4 ../../../nxtOSEK/ecrobot/../ecrobot/libecrobot.a(twi.oram)
 .bss.twi_pending
                0x0020627c        0x4 ../../../nxtOSEK/ecrobot/../ecrobot/libecrobot.a(twi.oram)
 .bss.twi_mask  0x00206280        0x4 ../../../nxtOSEK/ecrobot/../ecrobot/libecrobot.a(twi.oram)
 .bss.dirty     0x00206284        0x1 ../../../nxtOSEK/ecrobot/../ecrobot/libecrobot.a(nxt_spi.oram)
                0x00206284                dirty
 .bss.page      0x00206285        0x1 ../../../nxtOSEK/ecrobot/../ecrobot/libecrobot.a(nxt_spi.oram)
                0x00206285                page
 *fill*         0x00206286        0x2 00
 .bss.display   0x00206288        0x4 ../../../nxtOSEK/ecrobot/../ecrobot/libecrobot.a(nxt_spi.oram)
                0x00206288                display
 .bss.motor     0x0020628c       0x30 ../../../nxtOSEK/ecrobot/../ecrobot/libecrobot.a(nxt_motors.oram)
 .bss.nxt_motor_initialised
                0x002062bc        0x4 ../../../nxtOSEK/ecrobot/../ecrobot/libecrobot.a(nxt_motors.oram)
 .bss.interrupts_this_period
                0x002062c0        0x4 ../../../nxtOSEK/ecrobot/../ecrobot/libecrobot.a(nxt_motors.oram)
 .bss.display_array
                0x002062c4      0x388 ../../../nxtOSEK/ecrobot/../ecrobot/libecrobot.a(display.oram)
 .bss.display_tick
                0x0020664c        0x4 ../../../nxtOSEK/ecrobot/../ecrobot/libecrobot.a(display.oram)
                0x0020664c                display_tick
 .bss.i2c_port  0x00206650      0x170 ../../../nxtOSEK/ecrobot/../ecrobot/libecrobot.a(i2c.oram)
 .bss.i2c_int_count
                0x002067c0        0x4 ../../../nxtOSEK/ecrobot/../ecrobot/libecrobot.a(i2c.oram)
 .bss.sound_mode
                0x002067c4        0x1 ../../../nxtOSEK/ecrobot/../ecrobot/libecrobot.a(sound.oram)
                0x002067c4                sound_mode
 .bss.in_buf    0x002067c5      0x100 ../../../nxtOSEK/ecrobot/../ecrobot/libecrobot.a(bt.oram)
 .bss.out_buf_ptr
                0x002068c5        0x1 ../../../nxtOSEK/ecrobot/../ecrobot/libecrobot.a(bt.oram)
 .bss.out_buf   0x002068c6      0x200 ../../../nxtOSEK/ecrobot/../ecrobot/libecrobot.a(bt.oram)
 *fill*         0x00206ac6        0x2 00
 .bss.buf_ptr   0x00206ac8        0x4 ../../../nxtOSEK/ecrobot/../ecrobot/libecrobot.a(bt.oram)
 .bss.in_buf_in_ptr
                0x00206acc        0x1 ../../../nxtOSEK/ecrobot/../ecrobot/libecrobot.a(bt.oram)
 *fill*         0x00206acd        0x3 00
 .bss.in_buf_idx
                0x00206ad0        0x4 ../../../nxtOSEK/ecrobot/../ecrobot/libecrobot.a(bt.oram)
 .bss.update_count
                0x00206ad4        0x4 ../../../nxtOSEK/ecrobot/../ecrobot/libecrobot.a(nxt_avr.oram)
 .bss.debounce_state
                0x00206ad8        0x2 ../../../nxtOSEK/ecrobot/../ecrobot/libecrobot.a(nxt_avr.oram)
 .bss.button_state
                0x00206ada        0x2 ../../../nxtOSEK/ecrobot/../ecrobot/libecrobot.a(nxt_avr.oram)
 .bss.from_buf  0x00206adc        0x4 ../../../nxtOSEK/ecrobot/../ecrobot/libecrobot.a(nxt_avr.oram)
 .bss.io_from_avr
                0x00206ae0        0x4 ../../../nxtOSEK/ecrobot/../ecrobot/libecrobot.a(nxt_avr.oram)
 .bss.data_from_avr
                0x00206ae4       0x1a ../../../nxtOSEK/ecrobot/../ecrobot/libecrobot.a(nxt_avr.oram)
 .bss.debounce_cnt
                0x00206afe        0x2 ../../../nxtOSEK/ecrobot/../ecrobot/libecrobot.a(nxt_avr.oram)
 .bss.nxt_avr_stats
                0x00206b00       0x14 ../../../nxtOSEK/ecrobot/../ecrobot/libecrobot.a(nxt_avr.oram)
 .bss.link_state
                0x00206b14        0x4 ../../../nxtOSEK/ecrobot/../ecrobot/libecrobot.a(nxt_avr.oram)
 .bss.io_to_avr
                0x00206b18        0x8 ../../../nxtOSEK/ecrobot/../ecrobot/libecrobot.a(nxt_avr.oram)
 .bss.prev_buttons
                0x00206b20        0x2 ../../../nxtOSEK/ecrobot/../ecrobot/libecrobot.a(nxt_avr.oram)
 .bss.data_to_avr
                0x00206b22        0x9 ../../../nxtOSEK/ecrobot/../ecrobot/libecrobot.a(nxt_avr.oram)
 *fill*         0x00206b2b        0x1 00
 .bss.display   0x00206b2c        0x4 ../../../nxtOSEK/ecrobot/../ecrobot/libecrobot.a(nxt_lcd.oram)
 .bss.ud_theta_ref
                0x00206b30        0x4 ../../../nxtOSEK/ecrobot/../ecrobot/libnxtway_gs_balancer.a(balancer.o)
 .bss.ud_psi    0x00206b34        0x4 ../../../nxtOSEK/ecrobot/../ecrobot/libnxtway_gs_balancer.a(balancer.o)
 .bss.ud_err_theta
                0x00206b38        0x4 ../../../nxtOSEK/ecrobot/../ecrobot/libnxtway_gs_balancer.a(balancer.o)
 .bss.ud_thetadot_cmd_lpf
                0x00206b3c        0x4 ../../../nxtOSEK/ecrobot/../ecrobot/libnxtway_gs_balancer.a(balancer.o)
 .bss.ud_theta_lpf
                0x00206b40        0x4 ../../../nxtOSEK/ecrobot/../ecrobot/libnxtway_gs_balancer.a(balancer.o)
                0x00000000                PROVIDE (__dso_handle, 0x0)
                0x00206b50                . = ALIGN (0x10)
 *fill*         0x00206b44        0xc 00
                0x00206b50                __bss_end__ = .
 COMMON         0x00206b50        0x2 build/kernel/interrupt.o
                0x00206b50                runisr
                0x00206b51                sus_all_cnt
 *fill*         0x00206b52        0x2 00
 COMMON         0x00206b54       0x10 build/kernel/osctl.o
                0x00206b54                callevel
                0x00206b55                _errorhook_svcid
                0x00206b56                appmode
                0x00206b58                _errorhook_par1
                0x00206b5c                _errorhook_par3
                0x00206b60                _errorhook_par2
 COMMON         0x00206b64        0x3 build/kernel/task.o
                0x00206b64                runtsk
                0x00206b65                schedtsk
                0x00206b66                nextpri
 *fill*         0x00206b67        0x1 00
 COMMON         0x00206b68       0x2c build/./kernel_cfg.o
                0x00206b68                tcb_waievt
                0x00206b6c                rescb_prevpri
                0x00206b6d                almcb_prev
                0x00206b6e                tcb_lastres
                0x00206b70                almcb_almval
                0x00206b74                tcxb_pc
                0x00206b78                tcb_next
                0x00206b79                tcb_curpri
                0x00206b7a                tcb_tstat
                0x00206b7b                isrcb_lastres
                0x00206b7c                cntcb_almque
                0x00206b7d                rescb_prevres
                0x00206b7e                tcb_actcnt
                0x00206b80                tcb_curevt
                0x00206b84                almcb_cycle
                0x00206b88                tcxb_sp
                0x00206b8c                almcb_next
                0x00206b90                cntcb_curval
 COMMON         0x00206b94       0x80 build/sample.o
                0x00206b94                rx_buf
 COMMON         0x00206c14       0x44 ../../../nxtOSEK/ecrobot/../ecrobot/libecrobot.a(uart.oram)
                0x00206c14                uart
 COMMON         0x00206c58        0x4 ../../../nxtOSEK/ecrobot/../ecrobot/libecrobot.a(data_abort.oram)
                0x00206c58                data_abort_pc
 COMMON         0x00206c5c        0x8 ../../../nxtOSEK/ecrobot/../ecrobot/libecrobot.a(display.oram)
                0x00206c5c                display_x
                0x00206c60                display_y
 COMMON         0x00206c64      0x31c ../../../nxtOSEK/ecrobot/../ecrobot/libecrobot.a(sound.oram)
                0x00206c64                sample
                0x00205b50                __bss_start__ = ADDR (.bss)
                0x00206f80                __bss_end__ = (ADDR (.bss) + SIZEOF (.bss))
                0x00206f80                PROVIDE (end, .)

.heap_area      0x00206f80     0x8bf8
                0x0020fb78                . = (. + (0x20fb78 - end))
 *fill*         0x00206f80     0x8bf8 00

.stack          0x0020fb78      0x488
                0x0020fbf8                . = (. + 0x80)
 *fill*         0x0020fb78       0x80 00
                0x0020fc00                . = ALIGN (0x10)
 *fill*         0x0020fbf8        0x8 00
                0x0020fc00                __irq_stack__ = .
                0x0020fc00                __system_stack_bottom__ = .
                0x00210000                . = (. + 0x400)
 *fill*         0x0020fc00      0x400 00
                0x00210000                . = ALIGN (0x10)
                0x00210000                __system_stack__ = .
                0x00210000                __system_stack_top__ = .
                0x0020fb78                __stack_start__ = ADDR (.stack)
                0x00210000                __stack_end__ = (ADDR (.stack) + SIZEOF (.stack))

/DISCARD/
 *(.debug*)
OUTPUT(sample_c4_rxe.elf elf32-littlearm)

.comment        0x00000000       0x11
 .comment       0x00000000       0x11 build/kernel/alarm.o
                                 0x12 (size before relaxing)
 .comment       0x00000000       0x12 build/kernel/event.o
 .comment       0x00000000       0x12 build/kernel/interrupt.o
 .comment       0x00000000       0x12 build/kernel/osctl.o
 .comment       0x00000000       0x12 build/kernel/resource.o
 .comment       0x00000000       0x12 build/kernel/task.o
 .comment       0x00000000       0x12 build/kernel/task_manage.o
 .comment       0x00000000       0x12 build/config/at91sam7s-gnu/cpu_config.o
 .comment       0x00000000       0x12 build/config/at91sam7s-gnu/lego_nxt/sys_config.o
 .comment       0x00000000       0x12 build/./kernel_cfg.o
 .comment       0x00000000       0x12 build/syscalls.o
 .comment       0x00000000       0x12 build/ecrobot_bluetooth.o
 .comment       0x00000000       0x12 build/ecrobot_base.o
 .comment       0x00000000       0x12 build/ecrobot.o
 .comment       0x00000000       0x12 build/balancer_param.o
 .comment       0x00000000       0x12 build/sample.o
 .comment       0x00000000       0x12 build/syslib/at91sam7s-gnu/lego_nxt/hw_sys_timer.oram
 .comment       0x00000000       0x12 ../../../nxtOSEK/ecrobot/../ecrobot/libecrobot.a(ecrobot_HiTechnic.o)
 .comment       0x00000000       0x12 ../../../nxtOSEK/ecrobot/../ecrobot/libecrobot.a(ecrobot_interface.o)
 .comment       0x00000000       0x12 ../../../nxtOSEK/ecrobot/../ecrobot/libecrobot.a(colorsensor.o)
 .comment       0x00000000       0x12 ../../../nxtOSEK/ecrobot/../ecrobot/libecrobot.a(osek_hook.o)
 .comment       0x00000000       0x12 ../../../nxtOSEK/ecrobot/../ecrobot/libecrobot.a(uart.oram)
 .comment       0x00000000       0x12 ../../../nxtOSEK/ecrobot/../ecrobot/libecrobot.a(systick.oram)
 .comment       0x00000000       0x12 ../../../nxtOSEK/ecrobot/../ecrobot/libecrobot.a(byte_fifo.oram)
 .comment       0x00000000       0x12 ../../../nxtOSEK/ecrobot/../ecrobot/libecrobot.a(aic.oram)
 .comment       0x00000000       0x12 ../../../nxtOSEK/ecrobot/../ecrobot/libecrobot.a(udp.oram)
 .comment       0x00000000       0x12 ../../../nxtOSEK/ecrobot/../ecrobot/libecrobot.a(twi.oram)
 .comment       0x00000000       0x12 ../../../nxtOSEK/ecrobot/../ecrobot/libecrobot.a(nxt_spi.oram)
 .comment       0x00000000       0x12 ../../../nxtOSEK/ecrobot/../ecrobot/libecrobot.a(nxt_motors.oram)
 .comment       0x00000000       0x12 ../../../nxtOSEK/ecrobot/../ecrobot/libecrobot.a(data_abort.oram)
 .comment       0x00000000       0x12 ../../../nxtOSEK/ecrobot/../ecrobot/libecrobot.a(display.oram)
 .comment       0x00000000       0x12 ../../../nxtOSEK/ecrobot/../ecrobot/libecrobot.a(i2c.oram)
 .comment       0x00000000       0x12 ../../../nxtOSEK/ecrobot/../ecrobot/libecrobot.a(sound.oram)
 .comment       0x00000000       0x12 ../../../nxtOSEK/ecrobot/../ecrobot/libecrobot.a(bt.oram)
 .comment       0x00000000       0x12 ../../../nxtOSEK/ecrobot/../ecrobot/libecrobot.a(nxt_avr.oram)
 .comment       0x00000000       0x12 ../../../nxtOSEK/ecrobot/../ecrobot/libecrobot.a(sensors.oram)
 .comment       0x00000000       0x12 ../../../nxtOSEK/ecrobot/../ecrobot/libecrobot.a(sensors1.oram)
 .comment       0x00000000       0x12 ../../../nxtOSEK/ecrobot/../ecrobot/libecrobot.a(nxt_lcd.oram)
 .comment       0x00000000       0x12 ../../../nxtOSEK/ecrobot/../ecrobot/libecrobot.a(flash_loader.oram)
 .comment       0x00000000       0x12 ../../../nxtOSEK/ecrobot/../ecrobot/libecrobot.a(ecrobot_usb.o)
 .comment       0x00000000       0x12 ../../../nxtOSEK/ecrobot/../ecrobot/libecrobot.a(flashprog.oram)
 .comment       0x00000000       0x12 ../../../nxtOSEK/ecrobot/../ecrobot/libnxtway_gs_balancer.a(balancer.o)
 .comment       0x00000000       0x12 /Users/e125754/etrobo/yagarto-4.6.2/bin/../lib/gcc/arm-none-eabi/4.6.2/thumb/libgcc.a(_muldi3.o)
 .comment       0x00000000       0x12 /Users/e125754/etrobo/yagarto-4.6.2/bin/../lib/gcc/arm-none-eabi/4.6.2/thumb/libgcc.a(bpabi.o)
 .comment       0x00000000       0x12 /Users/e125754/etrobo/yagarto-4.6.2/bin/../lib/gcc/arm-none-eabi/4.6.2/thumb/libgcc.a(unwind-arm.o)
 .comment       0x00000000       0x12 /Users/e125754/etrobo/yagarto-4.6.2/bin/../lib/gcc/arm-none-eabi/4.6.2/thumb/libgcc.a(pr-support.o)
 .comment       0x00000000       0x12 /Users/e125754/etrobo/yagarto-4.6.2/bin/../lib/gcc/arm-none-eabi/4.6.2/thumb/libgcc.a(_divdi3.o)
 .comment       0x00000000       0x12 /Users/e125754/etrobo/yagarto-4.6.2/bin/../lib/gcc/arm-none-eabi/4.6.2/thumb/libgcc.a(_udivdi3.o)
 .comment       0x00000000       0x12 /Users/e125754/etrobo/yagarto-4.6.2/bin/../lib/gcc/arm-none-eabi/4.6.2/../../../../arm-none-eabi/lib/thumb/libc.a(lib_a-abort.o)
 .comment       0x00000000       0x12 /Users/e125754/etrobo/yagarto-4.6.2/bin/../lib/gcc/arm-none-eabi/4.6.2/../../../../arm-none-eabi/lib/thumb/libc.a(lib_a-cxa_finalize.o)
 .comment       0x00000000       0x12 /Users/e125754/etrobo/yagarto-4.6.2/bin/../lib/gcc/arm-none-eabi/4.6.2/../../../../arm-none-eabi/lib/thumb/libc.a(lib_a-memcpy.o)
 .comment       0x00000000       0x12 /Users/e125754/etrobo/yagarto-4.6.2/bin/../lib/gcc/arm-none-eabi/4.6.2/../../../../arm-none-eabi/lib/thumb/libc.a(lib_a-memset.o)
 .comment       0x00000000       0x12 /Users/e125754/etrobo/yagarto-4.6.2/bin/../lib/gcc/arm-none-eabi/4.6.2/../../../../arm-none-eabi/lib/thumb/libc.a(lib_a-signal.o)
 .comment       0x00000000       0x12 /Users/e125754/etrobo/yagarto-4.6.2/bin/../lib/gcc/arm-none-eabi/4.6.2/../../../../arm-none-eabi/lib/thumb/libc.a(lib_a-signalr.o)
 .comment       0x00000000       0x12 /Users/e125754/etrobo/yagarto-4.6.2/bin/../lib/gcc/arm-none-eabi/4.6.2/../../../../arm-none-eabi/lib/thumb/libc.a(lib_a-strcmp.o)
 .comment       0x00000000       0x12 /Users/e125754/etrobo/yagarto-4.6.2/bin/../lib/gcc/arm-none-eabi/4.6.2/../../../../arm-none-eabi/lib/thumb/libc.a(lib_a-strcpy.o)
 .comment       0x00000000       0x12 /Users/e125754/etrobo/yagarto-4.6.2/bin/../lib/gcc/arm-none-eabi/4.6.2/../../../../arm-none-eabi/lib/thumb/libc.a(lib_a-strlen.o)
 .comment       0x00000000       0x12 /Users/e125754/etrobo/yagarto-4.6.2/bin/../lib/gcc/arm-none-eabi/4.6.2/../../../../arm-none-eabi/lib/thumb/libc.a(lib_a-strncpy.o)
 .comment       0x00000000       0x12 /Users/e125754/etrobo/yagarto-4.6.2/bin/../lib/gcc/arm-none-eabi/4.6.2/../../../../arm-none-eabi/lib/thumb/libc.a(lib_a-__call_atexit.o)
 .comment       0x00000000       0x12 /Users/e125754/etrobo/yagarto-4.6.2/bin/../lib/gcc/arm-none-eabi/4.6.2/../../../../arm-none-eabi/lib/thumb/libc.a(lib_a-impure.o)
 .comment       0x00000000       0x12 /Users/e125754/etrobo/yagarto-4.6.2/bin/../lib/gcc/arm-none-eabi/4.6.2/../../../../arm-none-eabi/lib/thumb/libc.a(lib_a-mallocr.o)
 .comment       0x00000000       0x12 /Users/e125754/etrobo/yagarto-4.6.2/bin/../lib/gcc/arm-none-eabi/4.6.2/../../../../arm-none-eabi/lib/thumb/libc.a(lib_a-mlock.o)
 .comment       0x00000000       0x12 /Users/e125754/etrobo/yagarto-4.6.2/bin/../lib/gcc/arm-none-eabi/4.6.2/../../../../arm-none-eabi/lib/thumb/libc.a(lib_a-reent.o)
 .comment       0x00000000       0x12 /Users/e125754/etrobo/yagarto-4.6.2/bin/../lib/gcc/arm-none-eabi/4.6.2/../../../../arm-none-eabi/lib/thumb/libc.a(lib_a-freer.o)

.ARM.attributes
                0x00000000       0x2e
 .ARM.attributes
                0x00000000       0x32 build/kernel/alarm.o
 .ARM.attributes
                0x00000032       0x32 build/kernel/event.o
 .ARM.attributes
                0x00000064       0x32 build/kernel/interrupt.o
 .ARM.attributes
                0x00000096       0x32 build/kernel/osctl.o
 .ARM.attributes
                0x000000c8       0x32 build/kernel/resource.o
 .ARM.attributes
                0x000000fa       0x32 build/kernel/task.o
 .ARM.attributes
                0x0000012c       0x32 build/kernel/task_manage.o
 .ARM.attributes
                0x0000015e       0x32 build/config/at91sam7s-gnu/cpu_config.o
 .ARM.attributes
                0x00000190       0x32 build/config/at91sam7s-gnu/lego_nxt/sys_config.o
 .ARM.attributes
                0x000001c2       0x32 build/./kernel_cfg.o
 .ARM.attributes
                0x000001f4       0x32 build/syscalls.o
 .ARM.attributes
                0x00000226       0x32 build/ecrobot_bluetooth.o
 .ARM.attributes
                0x00000258       0x32 build/ecrobot_base.o
 .ARM.attributes
                0x0000028a       0x32 build/ecrobot.o
 .ARM.attributes
                0x000002bc       0x32 build/balancer_param.o
 .ARM.attributes
                0x000002ee       0x32 build/sample.o
 .ARM.attributes
                0x00000320       0x32 build/syslib/at91sam7s-gnu/lego_nxt/hw_sys_timer.oram
 .ARM.attributes
                0x00000352       0x22 build/nxtvm/platform/nxt/vectors.o
 .ARM.attributes
                0x00000374       0x22 build/config/at91sam7s-gnu/debug.o
 .ARM.attributes
                0x00000396       0x22 build/config/at91sam7s-gnu/lego_nxt/sys_support.o
 .ARM.attributes
                0x000003b8       0x22 build/nxt_binary_header.o
 .ARM.attributes
                0x000003da       0x22 build/nxt_entry_point.o
 .ARM.attributes
                0x000003fc       0x22 build/ecrobot_init.o
 .ARM.attributes
                0x0000041e       0x22 build/config/at91sam7s-gnu/cpu_support.oram
 .ARM.attributes
                0x00000440       0x22 build/config/at91sam7s-gnu/irq.oram
 .ARM.attributes
                0x00000462       0x32 ../../../nxtOSEK/ecrobot/../ecrobot/libecrobot.a(ecrobot_HiTechnic.o)
 .ARM.attributes
                0x00000494       0x32 ../../../nxtOSEK/ecrobot/../ecrobot/libecrobot.a(ecrobot_interface.o)
 .ARM.attributes
                0x000004c6       0x32 ../../../nxtOSEK/ecrobot/../ecrobot/libecrobot.a(colorsensor.o)
 .ARM.attributes
                0x000004f8       0x32 ../../../nxtOSEK/ecrobot/../ecrobot/libecrobot.a(osek_hook.o)
 .ARM.attributes
                0x0000052a       0x32 ../../../nxtOSEK/ecrobot/../ecrobot/libecrobot.a(uart.oram)
 .ARM.attributes
                0x0000055c       0x32 ../../../nxtOSEK/ecrobot/../ecrobot/libecrobot.a(systick.oram)
 .ARM.attributes
                0x0000058e       0x32 ../../../nxtOSEK/ecrobot/../ecrobot/libecrobot.a(byte_fifo.oram)
 .ARM.attributes
                0x000005c0       0x32 ../../../nxtOSEK/ecrobot/../ecrobot/libecrobot.a(aic.oram)
 .ARM.attributes
                0x000005f2       0x32 ../../../nxtOSEK/ecrobot/../ecrobot/libecrobot.a(udp.oram)
 .ARM.attributes
                0x00000624       0x32 ../../../nxtOSEK/ecrobot/../ecrobot/libecrobot.a(twi.oram)
 .ARM.attributes
                0x00000656       0x32 ../../../nxtOSEK/ecrobot/../ecrobot/libecrobot.a(nxt_spi.oram)
 .ARM.attributes
                0x00000688       0x32 ../../../nxtOSEK/ecrobot/../ecrobot/libecrobot.a(nxt_motors.oram)
 .ARM.attributes
                0x000006ba       0x32 ../../../nxtOSEK/ecrobot/../ecrobot/libecrobot.a(data_abort.oram)
 .ARM.attributes
                0x000006ec       0x32 ../../../nxtOSEK/ecrobot/../ecrobot/libecrobot.a(display.oram)
 .ARM.attributes
                0x0000071e       0x32 ../../../nxtOSEK/ecrobot/../ecrobot/libecrobot.a(i2c.oram)
 .ARM.attributes
                0x00000750       0x32 ../../../nxtOSEK/ecrobot/../ecrobot/libecrobot.a(sound.oram)
 .ARM.attributes
                0x00000782       0x32 ../../../nxtOSEK/ecrobot/../ecrobot/libecrobot.a(bt.oram)
 .ARM.attributes
                0x000007b4       0x32 ../../../nxtOSEK/ecrobot/../ecrobot/libecrobot.a(nxt_avr.oram)
 .ARM.attributes
                0x000007e6       0x32 ../../../nxtOSEK/ecrobot/../ecrobot/libecrobot.a(sensors.oram)
 .ARM.attributes
                0x00000818       0x32 ../../../nxtOSEK/ecrobot/../ecrobot/libecrobot.a(sensors1.oram)
 .ARM.attributes
                0x0000084a       0x32 ../../../nxtOSEK/ecrobot/../ecrobot/libecrobot.a(nxt_lcd.oram)
 .ARM.attributes
                0x0000087c       0x32 ../../../nxtOSEK/ecrobot/../ecrobot/libecrobot.a(flash_loader.oram)
 .ARM.attributes
                0x000008ae       0x22 ../../../nxtOSEK/ecrobot/../ecrobot/libecrobot.a(interrupts.oram)
 .ARM.attributes
                0x000008d0       0x32 ../../../nxtOSEK/ecrobot/../ecrobot/libecrobot.a(ecrobot_usb.o)
 .ARM.attributes
                0x00000902       0x32 ../../../nxtOSEK/ecrobot/../ecrobot/libecrobot.a(flashprog.oram)
 .ARM.attributes
                0x00000934       0x32 ../../../nxtOSEK/ecrobot/../ecrobot/libnxtway_gs_balancer.a(balancer.o)
 .ARM.attributes
                0x00000966       0x18 /Users/e125754/etrobo/yagarto-4.6.2/bin/../lib/gcc/arm-none-eabi/4.6.2/thumb/libgcc.a(_thumb1_case_uqi.o)
 .ARM.attributes
                0x0000097e       0x18 /Users/e125754/etrobo/yagarto-4.6.2/bin/../lib/gcc/arm-none-eabi/4.6.2/thumb/libgcc.a(_thumb1_case_uhi.o)
 .ARM.attributes
                0x00000996       0x1a /Users/e125754/etrobo/yagarto-4.6.2/bin/../lib/gcc/arm-none-eabi/4.6.2/thumb/libgcc.a(_udivsi3.o)
 .ARM.attributes
                0x000009b0       0x1a /Users/e125754/etrobo/yagarto-4.6.2/bin/../lib/gcc/arm-none-eabi/4.6.2/thumb/libgcc.a(_divsi3.o)
 .ARM.attributes
                0x000009ca       0x18 /Users/e125754/etrobo/yagarto-4.6.2/bin/../lib/gcc/arm-none-eabi/4.6.2/thumb/libgcc.a(_dvmd_tls.o)
 .ARM.attributes
                0x000009e2       0x1a /Users/e125754/etrobo/yagarto-4.6.2/bin/../lib/gcc/arm-none-eabi/4.6.2/thumb/libgcc.a(_arm_addsubdf3.o)
 .ARM.attributes
                0x000009fc       0x1a /Users/e125754/etrobo/yagarto-4.6.2/bin/../lib/gcc/arm-none-eabi/4.6.2/thumb/libgcc.a(_arm_muldivdf3.o)
 .ARM.attributes
                0x00000a16       0x1a /Users/e125754/etrobo/yagarto-4.6.2/bin/../lib/gcc/arm-none-eabi/4.6.2/thumb/libgcc.a(_arm_cmpdf2.o)
 .ARM.attributes
                0x00000a30       0x1a /Users/e125754/etrobo/yagarto-4.6.2/bin/../lib/gcc/arm-none-eabi/4.6.2/thumb/libgcc.a(_arm_addsubsf3.o)
 .ARM.attributes
                0x00000a4a       0x1a /Users/e125754/etrobo/yagarto-4.6.2/bin/../lib/gcc/arm-none-eabi/4.6.2/thumb/libgcc.a(_arm_muldivsf3.o)
 .ARM.attributes
                0x00000a64       0x1a /Users/e125754/etrobo/yagarto-4.6.2/bin/../lib/gcc/arm-none-eabi/4.6.2/thumb/libgcc.a(_arm_cmpsf2.o)
 .ARM.attributes
                0x00000a7e       0x1a /Users/e125754/etrobo/yagarto-4.6.2/bin/../lib/gcc/arm-none-eabi/4.6.2/thumb/libgcc.a(_arm_fixsfsi.o)
 .ARM.attributes
                0x00000a98       0x1a /Users/e125754/etrobo/yagarto-4.6.2/bin/../lib/gcc/arm-none-eabi/4.6.2/thumb/libgcc.a(_aeabi_ldivmod.o)
 .ARM.attributes
                0x00000ab2       0x32 /Users/e125754/etrobo/yagarto-4.6.2/bin/../lib/gcc/arm-none-eabi/4.6.2/thumb/libgcc.a(_muldi3.o)
 .ARM.attributes
                0x00000ae4       0x32 /Users/e125754/etrobo/yagarto-4.6.2/bin/../lib/gcc/arm-none-eabi/4.6.2/thumb/libgcc.a(bpabi.o)
 .ARM.attributes
                0x00000b16       0x32 /Users/e125754/etrobo/yagarto-4.6.2/bin/../lib/gcc/arm-none-eabi/4.6.2/thumb/libgcc.a(unwind-arm.o)
 .ARM.attributes
                0x00000b48       0x1e /Users/e125754/etrobo/yagarto-4.6.2/bin/../lib/gcc/arm-none-eabi/4.6.2/thumb/libgcc.a(libunwind.o)
 .ARM.attributes
                0x00000b66       0x32 /Users/e125754/etrobo/yagarto-4.6.2/bin/../lib/gcc/arm-none-eabi/4.6.2/thumb/libgcc.a(pr-support.o)
 .ARM.attributes
                0x00000b98       0x32 /Users/e125754/etrobo/yagarto-4.6.2/bin/../lib/gcc/arm-none-eabi/4.6.2/thumb/libgcc.a(_divdi3.o)
 .ARM.attributes
                0x00000bca       0x32 /Users/e125754/etrobo/yagarto-4.6.2/bin/../lib/gcc/arm-none-eabi/4.6.2/thumb/libgcc.a(_udivdi3.o)
 .ARM.attributes
                0x00000bfc       0x1a /Users/e125754/etrobo/yagarto-4.6.2/bin/../lib/gcc/arm-none-eabi/4.6.2/thumb/libgcc.a(_clzsi2.o)
 .ARM.attributes
                0x00000c16       0x32 /Users/e125754/etrobo/yagarto-4.6.2/bin/../lib/gcc/arm-none-eabi/4.6.2/../../../../arm-none-eabi/lib/thumb/libc.a(lib_a-abort.o)
 .ARM.attributes
                0x00000c48       0x32 /Users/e125754/etrobo/yagarto-4.6.2/bin/../lib/gcc/arm-none-eabi/4.6.2/../../../../arm-none-eabi/lib/thumb/libc.a(lib_a-cxa_finalize.o)
 .ARM.attributes
                0x00000c7a       0x32 /Users/e125754/etrobo/yagarto-4.6.2/bin/../lib/gcc/arm-none-eabi/4.6.2/../../../../arm-none-eabi/lib/thumb/libc.a(lib_a-memcpy.o)
 .ARM.attributes
                0x00000cac       0x32 /Users/e125754/etrobo/yagarto-4.6.2/bin/../lib/gcc/arm-none-eabi/4.6.2/../../../../arm-none-eabi/lib/thumb/libc.a(lib_a-memset.o)
 .ARM.attributes
                0x00000cde       0x32 /Users/e125754/etrobo/yagarto-4.6.2/bin/../lib/gcc/arm-none-eabi/4.6.2/../../../../arm-none-eabi/lib/thumb/libc.a(lib_a-signal.o)
 .ARM.attributes
                0x00000d10       0x32 /Users/e125754/etrobo/yagarto-4.6.2/bin/../lib/gcc/arm-none-eabi/4.6.2/../../../../arm-none-eabi/lib/thumb/libc.a(lib_a-signalr.o)
 .ARM.attributes
                0x00000d42       0x32 /Users/e125754/etrobo/yagarto-4.6.2/bin/../lib/gcc/arm-none-eabi/4.6.2/../../../../arm-none-eabi/lib/thumb/libc.a(lib_a-strcmp.o)
 .ARM.attributes
                0x00000d74       0x32 /Users/e125754/etrobo/yagarto-4.6.2/bin/../lib/gcc/arm-none-eabi/4.6.2/../../../../arm-none-eabi/lib/thumb/libc.a(lib_a-strcpy.o)
 .ARM.attributes
                0x00000da6       0x32 /Users/e125754/etrobo/yagarto-4.6.2/bin/../lib/gcc/arm-none-eabi/4.6.2/../../../../arm-none-eabi/lib/thumb/libc.a(lib_a-strlen.o)
 .ARM.attributes
                0x00000dd8       0x32 /Users/e125754/etrobo/yagarto-4.6.2/bin/../lib/gcc/arm-none-eabi/4.6.2/../../../../arm-none-eabi/lib/thumb/libc.a(lib_a-strncpy.o)
 .ARM.attributes
                0x00000e0a       0x32 /Users/e125754/etrobo/yagarto-4.6.2/bin/../lib/gcc/arm-none-eabi/4.6.2/../../../../arm-none-eabi/lib/thumb/libc.a(lib_a-__call_atexit.o)
 .ARM.attributes
                0x00000e3c       0x32 /Users/e125754/etrobo/yagarto-4.6.2/bin/../lib/gcc/arm-none-eabi/4.6.2/../../../../arm-none-eabi/lib/thumb/libc.a(lib_a-impure.o)
 .ARM.attributes
                0x00000e6e       0x32 /Users/e125754/etrobo/yagarto-4.6.2/bin/../lib/gcc/arm-none-eabi/4.6.2/../../../../arm-none-eabi/lib/thumb/libc.a(lib_a-mallocr.o)
 .ARM.attributes
                0x00000ea0       0x32 /Users/e125754/etrobo/yagarto-4.6.2/bin/../lib/gcc/arm-none-eabi/4.6.2/../../../../arm-none-eabi/lib/thumb/libc.a(lib_a-mlock.o)
 .ARM.attributes
                0x00000ed2       0x32 /Users/e125754/etrobo/yagarto-4.6.2/bin/../lib/gcc/arm-none-eabi/4.6.2/../../../../arm-none-eabi/lib/thumb/libc.a(lib_a-reent.o)
 .ARM.attributes
                0x00000f04       0x32 /Users/e125754/etrobo/yagarto-4.6.2/bin/../lib/gcc/arm-none-eabi/4.6.2/../../../../arm-none-eabi/lib/thumb/libc.a(lib_a-freer.o)
 .ARM.attributes
                0x00000f36       0x22 build/nxtvm/platform/nxt/vectors.o

Cross Reference Table

Symbol                                            File
A_D                                               build/balancer_param.o
                                                  ../../../nxtOSEK/ecrobot/../ecrobot/libnxtway_gs_balancer.a(balancer.o)
A_R                                               build/balancer_param.o
                                                  ../../../nxtOSEK/ecrobot/../ecrobot/libnxtway_gs_balancer.a(balancer.o)
ActivateTask                                      build/kernel/task_manage.o
BATTERY_GAIN                                      build/balancer_param.o
                                                  ../../../nxtOSEK/ecrobot/../ecrobot/libnxtway_gs_balancer.a(balancer.o)
BATTERY_OFFSET                                    build/balancer_param.o
                                                  ../../../nxtOSEK/ecrobot/../ecrobot/libnxtway_gs_balancer.a(balancer.o)
CancelAlarm                                       build/kernel/alarm.o
ChainTask                                         build/kernel/task_manage.o
ClearEvent                                        build/kernel/event.o
DisableAllInterrupts                              build/kernel/interrupt.o
EnableAllInterrupts                               build/kernel/interrupt.o
ErrorHook                                         ../../../nxtOSEK/ecrobot/../ecrobot/libecrobot.a(osek_hook.o)
                                                  build/kernel/osctl.o
GetActiveApplicationMode                          build/kernel/osctl.o
GetAlarm                                          build/kernel/alarm.o
GetAlarmBase                                      build/kernel/alarm.o
GetEvent                                          build/kernel/event.o
GetResource                                       build/kernel/resource.o
GetTaskID                                         build/kernel/task_manage.o
GetTaskState                                      build/kernel/task_manage.o
K_F                                               build/balancer_param.o
                                                  ../../../nxtOSEK/ecrobot/../ecrobot/libnxtway_gs_balancer.a(balancer.o)
K_I                                               build/balancer_param.o
                                                  ../../../nxtOSEK/ecrobot/../ecrobot/libnxtway_gs_balancer.a(balancer.o)
K_PHIDOT                                          build/balancer_param.o
                                                  ../../../nxtOSEK/ecrobot/../ecrobot/libnxtway_gs_balancer.a(balancer.o)
K_THETADOT                                        build/balancer_param.o
                                                  ../../../nxtOSEK/ecrobot/../ecrobot/libnxtway_gs_balancer.a(balancer.o)
NXT_COLORSENSOR_PROTOCOLS                         ../../../nxtOSEK/ecrobot/../ecrobot/libecrobot.a(ecrobot_interface.o)
NXT_Entry_Point                                   build/nxt_entry_point.o
                                                  build/nxt_binary_header.o
PostTaskHook                                      ../../../nxtOSEK/ecrobot/../ecrobot/libecrobot.a(osek_hook.o)
                                                  build/config/at91sam7s-gnu/cpu_support.oram
                                                  build/kernel/osctl.o
PreTaskHook                                       ../../../nxtOSEK/ecrobot/../ecrobot/libecrobot.a(osek_hook.o)
                                                  build/config/at91sam7s-gnu/cpu_support.oram
                                                  build/kernel/osctl.o
ReleaseResource                                   build/kernel/resource.o
ResumeAllInterrupts                               build/kernel/interrupt.o
ResumeOSInterrupts                                build/kernel/interrupt.o
Schedule                                          build/kernel/task_manage.o
SetAbsAlarm                                       build/kernel/alarm.o
SetEvent                                          build/kernel/event.o
SetRelAlarm                                       build/kernel/alarm.o
ShutdownHook                                      ../../../nxtOSEK/ecrobot/../ecrobot/libecrobot.a(osek_hook.o)
                                                  build/kernel/osctl.o
ShutdownOS                                        build/kernel/osctl.o
SignalCounter                                     build/kernel/alarm.o
StartOS                                           build/kernel/osctl.o
                                                  build/ecrobot.o
StartupHook                                       ../../../nxtOSEK/ecrobot/../ecrobot/libecrobot.a(osek_hook.o)
                                                  build/kernel/osctl.o
SuspendAllInterrupts                              build/kernel/interrupt.o
SuspendOSInterrupts                               build/kernel/interrupt.o
TaskMain                                          build/./kernel_cfg.o
TaskMainTaskMain                                  build/sample.o
                                                  build/./kernel_cfg.o
TerminateTask                                     build/kernel/task_manage.o
WaitEvent                                         build/kernel/event.o
_Unwind_Backtrace                                 /Users/e125754/etrobo/yagarto-4.6.2/bin/../lib/gcc/arm-none-eabi/4.6.2/thumb/libgcc.a(libunwind.o)
_Unwind_Complete                                  /Users/e125754/etrobo/yagarto-4.6.2/bin/../lib/gcc/arm-none-eabi/4.6.2/thumb/libgcc.a(unwind-arm.o)
_Unwind_DeleteException                           /Users/e125754/etrobo/yagarto-4.6.2/bin/../lib/gcc/arm-none-eabi/4.6.2/thumb/libgcc.a(unwind-arm.o)
_Unwind_ForcedUnwind                              /Users/e125754/etrobo/yagarto-4.6.2/bin/../lib/gcc/arm-none-eabi/4.6.2/thumb/libgcc.a(libunwind.o)
_Unwind_GetCFA                                    /Users/e125754/etrobo/yagarto-4.6.2/bin/../lib/gcc/arm-none-eabi/4.6.2/thumb/libgcc.a(unwind-arm.o)
_Unwind_GetDataRelBase                            /Users/e125754/etrobo/yagarto-4.6.2/bin/../lib/gcc/arm-none-eabi/4.6.2/thumb/libgcc.a(pr-support.o)
_Unwind_GetLanguageSpecificData                   /Users/e125754/etrobo/yagarto-4.6.2/bin/../lib/gcc/arm-none-eabi/4.6.2/thumb/libgcc.a(pr-support.o)
_Unwind_GetRegionStart                            /Users/e125754/etrobo/yagarto-4.6.2/bin/../lib/gcc/arm-none-eabi/4.6.2/thumb/libgcc.a(pr-support.o)
_Unwind_GetTextRelBase                            /Users/e125754/etrobo/yagarto-4.6.2/bin/../lib/gcc/arm-none-eabi/4.6.2/thumb/libgcc.a(pr-support.o)
_Unwind_RaiseException                            /Users/e125754/etrobo/yagarto-4.6.2/bin/../lib/gcc/arm-none-eabi/4.6.2/thumb/libgcc.a(libunwind.o)
_Unwind_Resume                                    /Users/e125754/etrobo/yagarto-4.6.2/bin/../lib/gcc/arm-none-eabi/4.6.2/thumb/libgcc.a(libunwind.o)
_Unwind_Resume_or_Rethrow                         /Users/e125754/etrobo/yagarto-4.6.2/bin/../lib/gcc/arm-none-eabi/4.6.2/thumb/libgcc.a(libunwind.o)
_Unwind_VRS_Get                                   /Users/e125754/etrobo/yagarto-4.6.2/bin/../lib/gcc/arm-none-eabi/4.6.2/thumb/libgcc.a(unwind-arm.o)
                                                  /Users/e125754/etrobo/yagarto-4.6.2/bin/../lib/gcc/arm-none-eabi/4.6.2/thumb/libgcc.a(pr-support.o)
_Unwind_VRS_Pop                                   /Users/e125754/etrobo/yagarto-4.6.2/bin/../lib/gcc/arm-none-eabi/4.6.2/thumb/libgcc.a(unwind-arm.o)
                                                  /Users/e125754/etrobo/yagarto-4.6.2/bin/../lib/gcc/arm-none-eabi/4.6.2/thumb/libgcc.a(pr-support.o)
_Unwind_VRS_Set                                   /Users/e125754/etrobo/yagarto-4.6.2/bin/../lib/gcc/arm-none-eabi/4.6.2/thumb/libgcc.a(unwind-arm.o)
                                                  /Users/e125754/etrobo/yagarto-4.6.2/bin/../lib/gcc/arm-none-eabi/4.6.2/thumb/libgcc.a(pr-support.o)
___Unwind_Backtrace                               /Users/e125754/etrobo/yagarto-4.6.2/bin/../lib/gcc/arm-none-eabi/4.6.2/thumb/libgcc.a(libunwind.o)
___Unwind_ForcedUnwind                            /Users/e125754/etrobo/yagarto-4.6.2/bin/../lib/gcc/arm-none-eabi/4.6.2/thumb/libgcc.a(libunwind.o)
___Unwind_RaiseException                          /Users/e125754/etrobo/yagarto-4.6.2/bin/../lib/gcc/arm-none-eabi/4.6.2/thumb/libgcc.a(libunwind.o)
___Unwind_Resume                                  /Users/e125754/etrobo/yagarto-4.6.2/bin/../lib/gcc/arm-none-eabi/4.6.2/thumb/libgcc.a(libunwind.o)
___Unwind_Resume_or_Rethrow                       /Users/e125754/etrobo/yagarto-4.6.2/bin/../lib/gcc/arm-none-eabi/4.6.2/thumb/libgcc.a(libunwind.o)
__adddf3                                          /Users/e125754/etrobo/yagarto-4.6.2/bin/../lib/gcc/arm-none-eabi/4.6.2/thumb/libgcc.a(_arm_addsubdf3.o)
__addsf3                                          /Users/e125754/etrobo/yagarto-4.6.2/bin/../lib/gcc/arm-none-eabi/4.6.2/thumb/libgcc.a(_arm_addsubsf3.o)
__aeabi_cdcmpeq                                   /Users/e125754/etrobo/yagarto-4.6.2/bin/../lib/gcc/arm-none-eabi/4.6.2/thumb/libgcc.a(_arm_cmpdf2.o)
__aeabi_cdcmple                                   /Users/e125754/etrobo/yagarto-4.6.2/bin/../lib/gcc/arm-none-eabi/4.6.2/thumb/libgcc.a(_arm_cmpdf2.o)
__aeabi_cdrcmple                                  /Users/e125754/etrobo/yagarto-4.6.2/bin/../lib/gcc/arm-none-eabi/4.6.2/thumb/libgcc.a(_arm_cmpdf2.o)
__aeabi_cfcmpeq                                   /Users/e125754/etrobo/yagarto-4.6.2/bin/../lib/gcc/arm-none-eabi/4.6.2/thumb/libgcc.a(_arm_cmpsf2.o)
__aeabi_cfcmple                                   /Users/e125754/etrobo/yagarto-4.6.2/bin/../lib/gcc/arm-none-eabi/4.6.2/thumb/libgcc.a(_arm_cmpsf2.o)
__aeabi_cfrcmple                                  /Users/e125754/etrobo/yagarto-4.6.2/bin/../lib/gcc/arm-none-eabi/4.6.2/thumb/libgcc.a(_arm_cmpsf2.o)
__aeabi_dadd                                      /Users/e125754/etrobo/yagarto-4.6.2/bin/../lib/gcc/arm-none-eabi/4.6.2/thumb/libgcc.a(_arm_addsubdf3.o)
__aeabi_dcmpeq                                    /Users/e125754/etrobo/yagarto-4.6.2/bin/../lib/gcc/arm-none-eabi/4.6.2/thumb/libgcc.a(_arm_cmpdf2.o)
__aeabi_dcmpge                                    /Users/e125754/etrobo/yagarto-4.6.2/bin/../lib/gcc/arm-none-eabi/4.6.2/thumb/libgcc.a(_arm_cmpdf2.o)
__aeabi_dcmpgt                                    /Users/e125754/etrobo/yagarto-4.6.2/bin/../lib/gcc/arm-none-eabi/4.6.2/thumb/libgcc.a(_arm_cmpdf2.o)
                                                  ../../../nxtOSEK/ecrobot/../ecrobot/libecrobot.a(colorsensor.o)
__aeabi_dcmple                                    /Users/e125754/etrobo/yagarto-4.6.2/bin/../lib/gcc/arm-none-eabi/4.6.2/thumb/libgcc.a(_arm_cmpdf2.o)
__aeabi_dcmplt                                    /Users/e125754/etrobo/yagarto-4.6.2/bin/../lib/gcc/arm-none-eabi/4.6.2/thumb/libgcc.a(_arm_cmpdf2.o)
__aeabi_ddiv                                      /Users/e125754/etrobo/yagarto-4.6.2/bin/../lib/gcc/arm-none-eabi/4.6.2/thumb/libgcc.a(_arm_muldivdf3.o)
__aeabi_dmul                                      /Users/e125754/etrobo/yagarto-4.6.2/bin/../lib/gcc/arm-none-eabi/4.6.2/thumb/libgcc.a(_arm_muldivdf3.o)
                                                  ../../../nxtOSEK/ecrobot/../ecrobot/libecrobot.a(colorsensor.o)
__aeabi_drsub                                     /Users/e125754/etrobo/yagarto-4.6.2/bin/../lib/gcc/arm-none-eabi/4.6.2/thumb/libgcc.a(_arm_addsubdf3.o)
__aeabi_dsub                                      /Users/e125754/etrobo/yagarto-4.6.2/bin/../lib/gcc/arm-none-eabi/4.6.2/thumb/libgcc.a(_arm_addsubdf3.o)
__aeabi_f2d                                       /Users/e125754/etrobo/yagarto-4.6.2/bin/../lib/gcc/arm-none-eabi/4.6.2/thumb/libgcc.a(_arm_addsubdf3.o)
__aeabi_f2iz                                      /Users/e125754/etrobo/yagarto-4.6.2/bin/../lib/gcc/arm-none-eabi/4.6.2/thumb/libgcc.a(_arm_fixsfsi.o)
                                                  ../../../nxtOSEK/ecrobot/../ecrobot/libnxtway_gs_balancer.a(balancer.o)
                                                  build/sample.o
__aeabi_fadd                                      /Users/e125754/etrobo/yagarto-4.6.2/bin/../lib/gcc/arm-none-eabi/4.6.2/thumb/libgcc.a(_arm_addsubsf3.o)
                                                  ../../../nxtOSEK/ecrobot/../ecrobot/libnxtway_gs_balancer.a(balancer.o)
__aeabi_fcmpeq                                    /Users/e125754/etrobo/yagarto-4.6.2/bin/../lib/gcc/arm-none-eabi/4.6.2/thumb/libgcc.a(_arm_cmpsf2.o)
__aeabi_fcmpge                                    /Users/e125754/etrobo/yagarto-4.6.2/bin/../lib/gcc/arm-none-eabi/4.6.2/thumb/libgcc.a(_arm_cmpsf2.o)
                                                  ../../../nxtOSEK/ecrobot/../ecrobot/libnxtway_gs_balancer.a(balancer.o)
__aeabi_fcmpgt                                    /Users/e125754/etrobo/yagarto-4.6.2/bin/../lib/gcc/arm-none-eabi/4.6.2/thumb/libgcc.a(_arm_cmpsf2.o)
__aeabi_fcmple                                    /Users/e125754/etrobo/yagarto-4.6.2/bin/../lib/gcc/arm-none-eabi/4.6.2/thumb/libgcc.a(_arm_cmpsf2.o)
                                                  ../../../nxtOSEK/ecrobot/../ecrobot/libnxtway_gs_balancer.a(balancer.o)
__aeabi_fcmplt                                    /Users/e125754/etrobo/yagarto-4.6.2/bin/../lib/gcc/arm-none-eabi/4.6.2/thumb/libgcc.a(_arm_cmpsf2.o)
__aeabi_fdiv                                      /Users/e125754/etrobo/yagarto-4.6.2/bin/../lib/gcc/arm-none-eabi/4.6.2/thumb/libgcc.a(_arm_muldivsf3.o)
                                                  ../../../nxtOSEK/ecrobot/../ecrobot/libnxtway_gs_balancer.a(balancer.o)
                                                  build/sample.o
__aeabi_fmul                                      /Users/e125754/etrobo/yagarto-4.6.2/bin/../lib/gcc/arm-none-eabi/4.6.2/thumb/libgcc.a(_arm_muldivsf3.o)
                                                  ../../../nxtOSEK/ecrobot/../ecrobot/libnxtway_gs_balancer.a(balancer.o)
                                                  build/sample.o
__aeabi_frsub                                     /Users/e125754/etrobo/yagarto-4.6.2/bin/../lib/gcc/arm-none-eabi/4.6.2/thumb/libgcc.a(_arm_addsubsf3.o)
__aeabi_fsub                                      /Users/e125754/etrobo/yagarto-4.6.2/bin/../lib/gcc/arm-none-eabi/4.6.2/thumb/libgcc.a(_arm_addsubsf3.o)
                                                  ../../../nxtOSEK/ecrobot/../ecrobot/libnxtway_gs_balancer.a(balancer.o)
__aeabi_i2d                                       /Users/e125754/etrobo/yagarto-4.6.2/bin/../lib/gcc/arm-none-eabi/4.6.2/thumb/libgcc.a(_arm_addsubdf3.o)
                                                  ../../../nxtOSEK/ecrobot/../ecrobot/libecrobot.a(colorsensor.o)
__aeabi_i2f                                       /Users/e125754/etrobo/yagarto-4.6.2/bin/../lib/gcc/arm-none-eabi/4.6.2/thumb/libgcc.a(_arm_addsubsf3.o)
                                                  build/sample.o
__aeabi_idiv                                      /Users/e125754/etrobo/yagarto-4.6.2/bin/../lib/gcc/arm-none-eabi/4.6.2/thumb/libgcc.a(_divsi3.o)
                                                  ../../../nxtOSEK/ecrobot/../ecrobot/libecrobot.a(sound.oram)
                                                  ../../../nxtOSEK/ecrobot/../ecrobot/libecrobot.a(uart.oram)
__aeabi_idiv0                                     /Users/e125754/etrobo/yagarto-4.6.2/bin/../lib/gcc/arm-none-eabi/4.6.2/thumb/libgcc.a(_dvmd_tls.o)
                                                  /Users/e125754/etrobo/yagarto-4.6.2/bin/../lib/gcc/arm-none-eabi/4.6.2/thumb/libgcc.a(_divsi3.o)
                                                  /Users/e125754/etrobo/yagarto-4.6.2/bin/../lib/gcc/arm-none-eabi/4.6.2/thumb/libgcc.a(_udivsi3.o)
__aeabi_idivmod                                   /Users/e125754/etrobo/yagarto-4.6.2/bin/../lib/gcc/arm-none-eabi/4.6.2/thumb/libgcc.a(_divsi3.o)
                                                  ../../../nxtOSEK/ecrobot/../ecrobot/libecrobot.a(flash_loader.oram)
                                                  ../../../nxtOSEK/ecrobot/../ecrobot/libecrobot.a(sound.oram)
__aeabi_l2d                                       /Users/e125754/etrobo/yagarto-4.6.2/bin/../lib/gcc/arm-none-eabi/4.6.2/thumb/libgcc.a(_arm_addsubdf3.o)
__aeabi_l2f                                       /Users/e125754/etrobo/yagarto-4.6.2/bin/../lib/gcc/arm-none-eabi/4.6.2/thumb/libgcc.a(_arm_addsubsf3.o)
__aeabi_ldiv0                                     /Users/e125754/etrobo/yagarto-4.6.2/bin/../lib/gcc/arm-none-eabi/4.6.2/thumb/libgcc.a(_dvmd_tls.o)
                                                  /Users/e125754/etrobo/yagarto-4.6.2/bin/../lib/gcc/arm-none-eabi/4.6.2/thumb/libgcc.a(_aeabi_ldivmod.o)
__aeabi_ldivmod                                   /Users/e125754/etrobo/yagarto-4.6.2/bin/../lib/gcc/arm-none-eabi/4.6.2/thumb/libgcc.a(_aeabi_ldivmod.o)
                                                  ../../../nxtOSEK/ecrobot/../ecrobot/libecrobot.a(sound.oram)
__aeabi_lmul                                      /Users/e125754/etrobo/yagarto-4.6.2/bin/../lib/gcc/arm-none-eabi/4.6.2/thumb/libgcc.a(_muldi3.o)
                                                  /Users/e125754/etrobo/yagarto-4.6.2/bin/../lib/gcc/arm-none-eabi/4.6.2/thumb/libgcc.a(bpabi.o)
                                                  ../../../nxtOSEK/ecrobot/../ecrobot/libecrobot.a(sound.oram)
__aeabi_ui2d                                      /Users/e125754/etrobo/yagarto-4.6.2/bin/../lib/gcc/arm-none-eabi/4.6.2/thumb/libgcc.a(_arm_addsubdf3.o)
__aeabi_ui2f                                      /Users/e125754/etrobo/yagarto-4.6.2/bin/../lib/gcc/arm-none-eabi/4.6.2/thumb/libgcc.a(_arm_addsubsf3.o)
                                                  build/sample.o
__aeabi_uidiv                                     /Users/e125754/etrobo/yagarto-4.6.2/bin/../lib/gcc/arm-none-eabi/4.6.2/thumb/libgcc.a(_udivsi3.o)
                                                  /Users/e125754/etrobo/yagarto-4.6.2/bin/../lib/gcc/arm-none-eabi/4.6.2/thumb/libgcc.a(_udivdi3.o)
                                                  /Users/e125754/etrobo/yagarto-4.6.2/bin/../lib/gcc/arm-none-eabi/4.6.2/thumb/libgcc.a(_divdi3.o)
                                                  ../../../nxtOSEK/ecrobot/../ecrobot/libecrobot.a(sound.oram)
                                                  ../../../nxtOSEK/ecrobot/../ecrobot/libecrobot.a(display.oram)
                                                  ../../../nxtOSEK/ecrobot/../ecrobot/libecrobot.a(ecrobot_interface.o)
                                                  build/ecrobot_base.o
__aeabi_uidivmod                                  /Users/e125754/etrobo/yagarto-4.6.2/bin/../lib/gcc/arm-none-eabi/4.6.2/thumb/libgcc.a(_udivsi3.o)
                                                  /Users/e125754/etrobo/yagarto-4.6.2/bin/../lib/gcc/arm-none-eabi/4.6.2/thumb/libgcc.a(_udivdi3.o)
                                                  /Users/e125754/etrobo/yagarto-4.6.2/bin/../lib/gcc/arm-none-eabi/4.6.2/thumb/libgcc.a(_divdi3.o)
                                                  ../../../nxtOSEK/ecrobot/../ecrobot/libecrobot.a(display.oram)
__aeabi_ul2d                                      /Users/e125754/etrobo/yagarto-4.6.2/bin/../lib/gcc/arm-none-eabi/4.6.2/thumb/libgcc.a(_arm_addsubdf3.o)
__aeabi_ul2f                                      /Users/e125754/etrobo/yagarto-4.6.2/bin/../lib/gcc/arm-none-eabi/4.6.2/thumb/libgcc.a(_arm_addsubsf3.o)
__aeabi_unwind_cpp_pr0                            /Users/e125754/etrobo/yagarto-4.6.2/bin/../lib/gcc/arm-none-eabi/4.6.2/thumb/libgcc.a(unwind-arm.o)
                                                  /Users/e125754/etrobo/yagarto-4.6.2/bin/../lib/gcc/arm-none-eabi/4.6.2/thumb/libgcc.a(pr-support.o)
                                                  /Users/e125754/etrobo/yagarto-4.6.2/bin/../lib/gcc/arm-none-eabi/4.6.2/thumb/libgcc.a(bpabi.o)
__aeabi_unwind_cpp_pr1                            /Users/e125754/etrobo/yagarto-4.6.2/bin/../lib/gcc/arm-none-eabi/4.6.2/thumb/libgcc.a(unwind-arm.o)
                                                  /Users/e125754/etrobo/yagarto-4.6.2/bin/../lib/gcc/arm-none-eabi/4.6.2/thumb/libgcc.a(_udivdi3.o)
                                                  /Users/e125754/etrobo/yagarto-4.6.2/bin/../lib/gcc/arm-none-eabi/4.6.2/thumb/libgcc.a(_divdi3.o)
                                                  /Users/e125754/etrobo/yagarto-4.6.2/bin/../lib/gcc/arm-none-eabi/4.6.2/thumb/libgcc.a(pr-support.o)
__aeabi_unwind_cpp_pr2                            /Users/e125754/etrobo/yagarto-4.6.2/bin/../lib/gcc/arm-none-eabi/4.6.2/thumb/libgcc.a(unwind-arm.o)
__bss_end__                                       build/ecrobot_init.o
__bss_start__                                     build/ecrobot_init.o
__call_exitprocs                                  /Users/e125754/etrobo/yagarto-4.6.2/bin/../lib/gcc/arm-none-eabi/4.6.2/../../../../arm-none-eabi/lib/thumb/libc.a(lib_a-__call_atexit.o)
                                                  /Users/e125754/etrobo/yagarto-4.6.2/bin/../lib/gcc/arm-none-eabi/4.6.2/../../../../arm-none-eabi/lib/thumb/libc.a(lib_a-cxa_finalize.o)
__clzsi2                                          /Users/e125754/etrobo/yagarto-4.6.2/bin/../lib/gcc/arm-none-eabi/4.6.2/thumb/libgcc.a(_clzsi2.o)
                                                  /Users/e125754/etrobo/yagarto-4.6.2/bin/../lib/gcc/arm-none-eabi/4.6.2/thumb/libgcc.a(_udivdi3.o)
                                                  /Users/e125754/etrobo/yagarto-4.6.2/bin/../lib/gcc/arm-none-eabi/4.6.2/thumb/libgcc.a(_divdi3.o)
__cmpdf2                                          /Users/e125754/etrobo/yagarto-4.6.2/bin/../lib/gcc/arm-none-eabi/4.6.2/thumb/libgcc.a(_arm_cmpdf2.o)
__cmpsf2                                          /Users/e125754/etrobo/yagarto-4.6.2/bin/../lib/gcc/arm-none-eabi/4.6.2/thumb/libgcc.a(_arm_cmpsf2.o)
__ctor_begin                                      build/ecrobot_base.o
__ctor_end                                        build/ecrobot_base.o
__cxa_begin_cleanup                               /Users/e125754/etrobo/yagarto-4.6.2/bin/../lib/gcc/arm-none-eabi/4.6.2/thumb/libgcc.a(unwind-arm.o)
__cxa_call_unexpected                             /Users/e125754/etrobo/yagarto-4.6.2/bin/../lib/gcc/arm-none-eabi/4.6.2/thumb/libgcc.a(unwind-arm.o)
__cxa_finalize                                    /Users/e125754/etrobo/yagarto-4.6.2/bin/../lib/gcc/arm-none-eabi/4.6.2/../../../../arm-none-eabi/lib/thumb/libc.a(lib_a-cxa_finalize.o)
                                                  build/ecrobot_base.o
__cxa_type_match                                  /Users/e125754/etrobo/yagarto-4.6.2/bin/../lib/gcc/arm-none-eabi/4.6.2/thumb/libgcc.a(unwind-arm.o)
__data_load_end__                                 build/ecrobot_init.o
__data_load_start__                               build/ecrobot_init.o
__data_ram_start__                                build/ecrobot_init.o
__divdf3                                          /Users/e125754/etrobo/yagarto-4.6.2/bin/../lib/gcc/arm-none-eabi/4.6.2/thumb/libgcc.a(_arm_muldivdf3.o)
__divdi3                                          /Users/e125754/etrobo/yagarto-4.6.2/bin/../lib/gcc/arm-none-eabi/4.6.2/thumb/libgcc.a(_divdi3.o)
                                                  /Users/e125754/etrobo/yagarto-4.6.2/bin/../lib/gcc/arm-none-eabi/4.6.2/thumb/libgcc.a(bpabi.o)
__divsf3                                          /Users/e125754/etrobo/yagarto-4.6.2/bin/../lib/gcc/arm-none-eabi/4.6.2/thumb/libgcc.a(_arm_muldivsf3.o)
__divsi3                                          /Users/e125754/etrobo/yagarto-4.6.2/bin/../lib/gcc/arm-none-eabi/4.6.2/thumb/libgcc.a(_divsi3.o)
__eqdf2                                           /Users/e125754/etrobo/yagarto-4.6.2/bin/../lib/gcc/arm-none-eabi/4.6.2/thumb/libgcc.a(_arm_cmpdf2.o)
__eqsf2                                           /Users/e125754/etrobo/yagarto-4.6.2/bin/../lib/gcc/arm-none-eabi/4.6.2/thumb/libgcc.a(_arm_cmpsf2.o)
__exidx_end                                       /Users/e125754/etrobo/yagarto-4.6.2/bin/../lib/gcc/arm-none-eabi/4.6.2/thumb/libgcc.a(unwind-arm.o)
__exidx_start                                     /Users/e125754/etrobo/yagarto-4.6.2/bin/../lib/gcc/arm-none-eabi/4.6.2/thumb/libgcc.a(unwind-arm.o)
__extendsfdf2                                     /Users/e125754/etrobo/yagarto-4.6.2/bin/../lib/gcc/arm-none-eabi/4.6.2/thumb/libgcc.a(_arm_addsubdf3.o)
__fixsfsi                                         /Users/e125754/etrobo/yagarto-4.6.2/bin/../lib/gcc/arm-none-eabi/4.6.2/thumb/libgcc.a(_arm_fixsfsi.o)
__floatdidf                                       /Users/e125754/etrobo/yagarto-4.6.2/bin/../lib/gcc/arm-none-eabi/4.6.2/thumb/libgcc.a(_arm_addsubdf3.o)
__floatdisf                                       /Users/e125754/etrobo/yagarto-4.6.2/bin/../lib/gcc/arm-none-eabi/4.6.2/thumb/libgcc.a(_arm_addsubsf3.o)
__floatsidf                                       /Users/e125754/etrobo/yagarto-4.6.2/bin/../lib/gcc/arm-none-eabi/4.6.2/thumb/libgcc.a(_arm_addsubdf3.o)
__floatsisf                                       /Users/e125754/etrobo/yagarto-4.6.2/bin/../lib/gcc/arm-none-eabi/4.6.2/thumb/libgcc.a(_arm_addsubsf3.o)
__floatundidf                                     /Users/e125754/etrobo/yagarto-4.6.2/bin/../lib/gcc/arm-none-eabi/4.6.2/thumb/libgcc.a(_arm_addsubdf3.o)
__floatundisf                                     /Users/e125754/etrobo/yagarto-4.6.2/bin/../lib/gcc/arm-none-eabi/4.6.2/thumb/libgcc.a(_arm_addsubsf3.o)
__floatunsidf                                     /Users/e125754/etrobo/yagarto-4.6.2/bin/../lib/gcc/arm-none-eabi/4.6.2/thumb/libgcc.a(_arm_addsubdf3.o)
__floatunsisf                                     /Users/e125754/etrobo/yagarto-4.6.2/bin/../lib/gcc/arm-none-eabi/4.6.2/thumb/libgcc.a(_arm_addsubsf3.o)
__gedf2                                           /Users/e125754/etrobo/yagarto-4.6.2/bin/../lib/gcc/arm-none-eabi/4.6.2/thumb/libgcc.a(_arm_cmpdf2.o)
__gesf2                                           /Users/e125754/etrobo/yagarto-4.6.2/bin/../lib/gcc/arm-none-eabi/4.6.2/thumb/libgcc.a(_arm_cmpsf2.o)
__gnu_Unwind_Backtrace                            /Users/e125754/etrobo/yagarto-4.6.2/bin/../lib/gcc/arm-none-eabi/4.6.2/thumb/libgcc.a(unwind-arm.o)
                                                  /Users/e125754/etrobo/yagarto-4.6.2/bin/../lib/gcc/arm-none-eabi/4.6.2/thumb/libgcc.a(libunwind.o)
__gnu_Unwind_Find_exidx                           /Users/e125754/etrobo/yagarto-4.6.2/bin/../lib/gcc/arm-none-eabi/4.6.2/thumb/libgcc.a(unwind-arm.o)
__gnu_Unwind_ForcedUnwind                         /Users/e125754/etrobo/yagarto-4.6.2/bin/../lib/gcc/arm-none-eabi/4.6.2/thumb/libgcc.a(unwind-arm.o)
                                                  /Users/e125754/etrobo/yagarto-4.6.2/bin/../lib/gcc/arm-none-eabi/4.6.2/thumb/libgcc.a(libunwind.o)
__gnu_Unwind_RaiseException                       /Users/e125754/etrobo/yagarto-4.6.2/bin/../lib/gcc/arm-none-eabi/4.6.2/thumb/libgcc.a(unwind-arm.o)
                                                  /Users/e125754/etrobo/yagarto-4.6.2/bin/../lib/gcc/arm-none-eabi/4.6.2/thumb/libgcc.a(libunwind.o)
__gnu_Unwind_Restore_VFP                          /Users/e125754/etrobo/yagarto-4.6.2/bin/../lib/gcc/arm-none-eabi/4.6.2/thumb/libgcc.a(libunwind.o)
                                                  /Users/e125754/etrobo/yagarto-4.6.2/bin/../lib/gcc/arm-none-eabi/4.6.2/thumb/libgcc.a(unwind-arm.o)
__gnu_Unwind_Restore_VFP_D                        /Users/e125754/etrobo/yagarto-4.6.2/bin/../lib/gcc/arm-none-eabi/4.6.2/thumb/libgcc.a(libunwind.o)
                                                  /Users/e125754/etrobo/yagarto-4.6.2/bin/../lib/gcc/arm-none-eabi/4.6.2/thumb/libgcc.a(unwind-arm.o)
__gnu_Unwind_Restore_VFP_D_16_to_31               /Users/e125754/etrobo/yagarto-4.6.2/bin/../lib/gcc/arm-none-eabi/4.6.2/thumb/libgcc.a(libunwind.o)
                                                  /Users/e125754/etrobo/yagarto-4.6.2/bin/../lib/gcc/arm-none-eabi/4.6.2/thumb/libgcc.a(unwind-arm.o)
__gnu_Unwind_Restore_WMMXC                        /Users/e125754/etrobo/yagarto-4.6.2/bin/../lib/gcc/arm-none-eabi/4.6.2/thumb/libgcc.a(libunwind.o)
                                                  /Users/e125754/etrobo/yagarto-4.6.2/bin/../lib/gcc/arm-none-eabi/4.6.2/thumb/libgcc.a(unwind-arm.o)
__gnu_Unwind_Restore_WMMXD                        /Users/e125754/etrobo/yagarto-4.6.2/bin/../lib/gcc/arm-none-eabi/4.6.2/thumb/libgcc.a(libunwind.o)
                                                  /Users/e125754/etrobo/yagarto-4.6.2/bin/../lib/gcc/arm-none-eabi/4.6.2/thumb/libgcc.a(unwind-arm.o)
__gnu_Unwind_Resume                               /Users/e125754/etrobo/yagarto-4.6.2/bin/../lib/gcc/arm-none-eabi/4.6.2/thumb/libgcc.a(unwind-arm.o)
                                                  /Users/e125754/etrobo/yagarto-4.6.2/bin/../lib/gcc/arm-none-eabi/4.6.2/thumb/libgcc.a(libunwind.o)
__gnu_Unwind_Resume_or_Rethrow                    /Users/e125754/etrobo/yagarto-4.6.2/bin/../lib/gcc/arm-none-eabi/4.6.2/thumb/libgcc.a(unwind-arm.o)
                                                  /Users/e125754/etrobo/yagarto-4.6.2/bin/../lib/gcc/arm-none-eabi/4.6.2/thumb/libgcc.a(libunwind.o)
__gnu_Unwind_Save_VFP                             /Users/e125754/etrobo/yagarto-4.6.2/bin/../lib/gcc/arm-none-eabi/4.6.2/thumb/libgcc.a(libunwind.o)
                                                  /Users/e125754/etrobo/yagarto-4.6.2/bin/../lib/gcc/arm-none-eabi/4.6.2/thumb/libgcc.a(unwind-arm.o)
__gnu_Unwind_Save_VFP_D                           /Users/e125754/etrobo/yagarto-4.6.2/bin/../lib/gcc/arm-none-eabi/4.6.2/thumb/libgcc.a(libunwind.o)
                                                  /Users/e125754/etrobo/yagarto-4.6.2/bin/../lib/gcc/arm-none-eabi/4.6.2/thumb/libgcc.a(unwind-arm.o)
__gnu_Unwind_Save_VFP_D_16_to_31                  /Users/e125754/etrobo/yagarto-4.6.2/bin/../lib/gcc/arm-none-eabi/4.6.2/thumb/libgcc.a(libunwind.o)
                                                  /Users/e125754/etrobo/yagarto-4.6.2/bin/../lib/gcc/arm-none-eabi/4.6.2/thumb/libgcc.a(unwind-arm.o)
__gnu_Unwind_Save_WMMXC                           /Users/e125754/etrobo/yagarto-4.6.2/bin/../lib/gcc/arm-none-eabi/4.6.2/thumb/libgcc.a(libunwind.o)
                                                  /Users/e125754/etrobo/yagarto-4.6.2/bin/../lib/gcc/arm-none-eabi/4.6.2/thumb/libgcc.a(unwind-arm.o)
__gnu_Unwind_Save_WMMXD                           /Users/e125754/etrobo/yagarto-4.6.2/bin/../lib/gcc/arm-none-eabi/4.6.2/thumb/libgcc.a(libunwind.o)
                                                  /Users/e125754/etrobo/yagarto-4.6.2/bin/../lib/gcc/arm-none-eabi/4.6.2/thumb/libgcc.a(unwind-arm.o)
__gnu_ldivmod_helper                              /Users/e125754/etrobo/yagarto-4.6.2/bin/../lib/gcc/arm-none-eabi/4.6.2/thumb/libgcc.a(bpabi.o)
                                                  /Users/e125754/etrobo/yagarto-4.6.2/bin/../lib/gcc/arm-none-eabi/4.6.2/thumb/libgcc.a(_aeabi_ldivmod.o)
__gnu_thumb1_case_uhi                             /Users/e125754/etrobo/yagarto-4.6.2/bin/../lib/gcc/arm-none-eabi/4.6.2/thumb/libgcc.a(_thumb1_case_uhi.o)
                                                  ../../../nxtOSEK/ecrobot/../ecrobot/libecrobot.a(i2c.oram)
__gnu_thumb1_case_uqi                             /Users/e125754/etrobo/yagarto-4.6.2/bin/../lib/gcc/arm-none-eabi/4.6.2/thumb/libgcc.a(_thumb1_case_uqi.o)
                                                  ../../../nxtOSEK/ecrobot/../ecrobot/libecrobot.a(sensors1.oram)
                                                  ../../../nxtOSEK/ecrobot/../ecrobot/libecrobot.a(nxt_avr.oram)
                                                  ../../../nxtOSEK/ecrobot/../ecrobot/libecrobot.a(uart.oram)
__gnu_uldivmod_helper                             /Users/e125754/etrobo/yagarto-4.6.2/bin/../lib/gcc/arm-none-eabi/4.6.2/thumb/libgcc.a(bpabi.o)
__gnu_unwind_execute                              /Users/e125754/etrobo/yagarto-4.6.2/bin/../lib/gcc/arm-none-eabi/4.6.2/thumb/libgcc.a(pr-support.o)
                                                  /Users/e125754/etrobo/yagarto-4.6.2/bin/../lib/gcc/arm-none-eabi/4.6.2/thumb/libgcc.a(unwind-arm.o)
__gnu_unwind_frame                                /Users/e125754/etrobo/yagarto-4.6.2/bin/../lib/gcc/arm-none-eabi/4.6.2/thumb/libgcc.a(pr-support.o)
__gtdf2                                           /Users/e125754/etrobo/yagarto-4.6.2/bin/../lib/gcc/arm-none-eabi/4.6.2/thumb/libgcc.a(_arm_cmpdf2.o)
__gtsf2                                           /Users/e125754/etrobo/yagarto-4.6.2/bin/../lib/gcc/arm-none-eabi/4.6.2/thumb/libgcc.a(_arm_cmpsf2.o)
__irq_stack__                                     build/ecrobot_init.o
__ledf2                                           /Users/e125754/etrobo/yagarto-4.6.2/bin/../lib/gcc/arm-none-eabi/4.6.2/thumb/libgcc.a(_arm_cmpdf2.o)
__lesf2                                           /Users/e125754/etrobo/yagarto-4.6.2/bin/../lib/gcc/arm-none-eabi/4.6.2/thumb/libgcc.a(_arm_cmpsf2.o)
__ltdf2                                           /Users/e125754/etrobo/yagarto-4.6.2/bin/../lib/gcc/arm-none-eabi/4.6.2/thumb/libgcc.a(_arm_cmpdf2.o)
__ltsf2                                           /Users/e125754/etrobo/yagarto-4.6.2/bin/../lib/gcc/arm-none-eabi/4.6.2/thumb/libgcc.a(_arm_cmpsf2.o)
__malloc_av_                                      /Users/e125754/etrobo/yagarto-4.6.2/bin/../lib/gcc/arm-none-eabi/4.6.2/../../../../arm-none-eabi/lib/thumb/libc.a(lib_a-mallocr.o)
                                                  /Users/e125754/etrobo/yagarto-4.6.2/bin/../lib/gcc/arm-none-eabi/4.6.2/../../../../arm-none-eabi/lib/thumb/libc.a(lib_a-freer.o)
__malloc_current_mallinfo                         /Users/e125754/etrobo/yagarto-4.6.2/bin/../lib/gcc/arm-none-eabi/4.6.2/../../../../arm-none-eabi/lib/thumb/libc.a(lib_a-mallocr.o)
                                                  /Users/e125754/etrobo/yagarto-4.6.2/bin/../lib/gcc/arm-none-eabi/4.6.2/../../../../arm-none-eabi/lib/thumb/libc.a(lib_a-freer.o)
__malloc_lock                                     /Users/e125754/etrobo/yagarto-4.6.2/bin/../lib/gcc/arm-none-eabi/4.6.2/../../../../arm-none-eabi/lib/thumb/libc.a(lib_a-mlock.o)
                                                  /Users/e125754/etrobo/yagarto-4.6.2/bin/../lib/gcc/arm-none-eabi/4.6.2/../../../../arm-none-eabi/lib/thumb/libc.a(lib_a-freer.o)
                                                  /Users/e125754/etrobo/yagarto-4.6.2/bin/../lib/gcc/arm-none-eabi/4.6.2/../../../../arm-none-eabi/lib/thumb/libc.a(lib_a-mallocr.o)
__malloc_max_sbrked_mem                           /Users/e125754/etrobo/yagarto-4.6.2/bin/../lib/gcc/arm-none-eabi/4.6.2/../../../../arm-none-eabi/lib/thumb/libc.a(lib_a-mallocr.o)
__malloc_max_total_mem                            /Users/e125754/etrobo/yagarto-4.6.2/bin/../lib/gcc/arm-none-eabi/4.6.2/../../../../arm-none-eabi/lib/thumb/libc.a(lib_a-mallocr.o)
__malloc_sbrk_base                                /Users/e125754/etrobo/yagarto-4.6.2/bin/../lib/gcc/arm-none-eabi/4.6.2/../../../../arm-none-eabi/lib/thumb/libc.a(lib_a-mallocr.o)
                                                  /Users/e125754/etrobo/yagarto-4.6.2/bin/../lib/gcc/arm-none-eabi/4.6.2/../../../../arm-none-eabi/lib/thumb/libc.a(lib_a-freer.o)
__malloc_top_pad                                  /Users/e125754/etrobo/yagarto-4.6.2/bin/../lib/gcc/arm-none-eabi/4.6.2/../../../../arm-none-eabi/lib/thumb/libc.a(lib_a-mallocr.o)
                                                  /Users/e125754/etrobo/yagarto-4.6.2/bin/../lib/gcc/arm-none-eabi/4.6.2/../../../../arm-none-eabi/lib/thumb/libc.a(lib_a-freer.o)
__malloc_trim_threshold                           /Users/e125754/etrobo/yagarto-4.6.2/bin/../lib/gcc/arm-none-eabi/4.6.2/../../../../arm-none-eabi/lib/thumb/libc.a(lib_a-mallocr.o)
                                                  /Users/e125754/etrobo/yagarto-4.6.2/bin/../lib/gcc/arm-none-eabi/4.6.2/../../../../arm-none-eabi/lib/thumb/libc.a(lib_a-freer.o)
__malloc_unlock                                   /Users/e125754/etrobo/yagarto-4.6.2/bin/../lib/gcc/arm-none-eabi/4.6.2/../../../../arm-none-eabi/lib/thumb/libc.a(lib_a-mlock.o)
                                                  /Users/e125754/etrobo/yagarto-4.6.2/bin/../lib/gcc/arm-none-eabi/4.6.2/../../../../arm-none-eabi/lib/thumb/libc.a(lib_a-freer.o)
                                                  /Users/e125754/etrobo/yagarto-4.6.2/bin/../lib/gcc/arm-none-eabi/4.6.2/../../../../arm-none-eabi/lib/thumb/libc.a(lib_a-mallocr.o)
__muldf3                                          /Users/e125754/etrobo/yagarto-4.6.2/bin/../lib/gcc/arm-none-eabi/4.6.2/thumb/libgcc.a(_arm_muldivdf3.o)
__muldi3                                          /Users/e125754/etrobo/yagarto-4.6.2/bin/../lib/gcc/arm-none-eabi/4.6.2/thumb/libgcc.a(_muldi3.o)
__mulsf3                                          /Users/e125754/etrobo/yagarto-4.6.2/bin/../lib/gcc/arm-none-eabi/4.6.2/thumb/libgcc.a(_arm_muldivsf3.o)
__nedf2                                           /Users/e125754/etrobo/yagarto-4.6.2/bin/../lib/gcc/arm-none-eabi/4.6.2/thumb/libgcc.a(_arm_cmpdf2.o)
__nesf2                                           /Users/e125754/etrobo/yagarto-4.6.2/bin/../lib/gcc/arm-none-eabi/4.6.2/thumb/libgcc.a(_arm_cmpsf2.o)
__ramtext_load_end__                              build/ecrobot_init.o
__ramtext_load_start__                            build/ecrobot_init.o
__ramtext_ram_start__                             build/ecrobot_init.o
__restore_core_regs                               /Users/e125754/etrobo/yagarto-4.6.2/bin/../lib/gcc/arm-none-eabi/4.6.2/thumb/libgcc.a(libunwind.o)
__sigtramp                                        /Users/e125754/etrobo/yagarto-4.6.2/bin/../lib/gcc/arm-none-eabi/4.6.2/../../../../arm-none-eabi/lib/thumb/libc.a(lib_a-signal.o)
__sigtramp_r                                      /Users/e125754/etrobo/yagarto-4.6.2/bin/../lib/gcc/arm-none-eabi/4.6.2/../../../../arm-none-eabi/lib/thumb/libc.a(lib_a-signal.o)
__stack_end__                                     build/ecrobot_init.o
__stack_start__                                   build/ecrobot_init.o
__subdf3                                          /Users/e125754/etrobo/yagarto-4.6.2/bin/../lib/gcc/arm-none-eabi/4.6.2/thumb/libgcc.a(_arm_addsubdf3.o)
__subsf3                                          /Users/e125754/etrobo/yagarto-4.6.2/bin/../lib/gcc/arm-none-eabi/4.6.2/thumb/libgcc.a(_arm_addsubsf3.o)
__system_stack__                                  build/config/at91sam7s-gnu/cpu_support.oram
                                                  build/ecrobot_init.o
__udivdi3                                         /Users/e125754/etrobo/yagarto-4.6.2/bin/../lib/gcc/arm-none-eabi/4.6.2/thumb/libgcc.a(_udivdi3.o)
                                                  /Users/e125754/etrobo/yagarto-4.6.2/bin/../lib/gcc/arm-none-eabi/4.6.2/thumb/libgcc.a(bpabi.o)
__udivsi3                                         /Users/e125754/etrobo/yagarto-4.6.2/bin/../lib/gcc/arm-none-eabi/4.6.2/thumb/libgcc.a(_udivsi3.o)
__vectors_load_end__                              build/ecrobot_init.o
__vectors_load_start__                            build/ecrobot_init.o
__vectors_ram_start__                             build/ecrobot_init.o
_errorhook_par1                                   build/kernel/task_manage.o
                                                  build/kernel/resource.o
                                                  build/kernel/osctl.o
                                                  build/kernel/event.o
                                                  build/kernel/alarm.o
_errorhook_par2                                   build/kernel/task_manage.o
                                                  build/kernel/osctl.o
                                                  build/kernel/event.o
                                                  build/kernel/alarm.o
_errorhook_par3                                   build/kernel/osctl.o
                                                  build/kernel/alarm.o
_errorhook_svcid                                  build/kernel/osctl.o
_exit                                             /Users/e125754/etrobo/yagarto-4.6.2/bin/../lib/gcc/arm-none-eabi/4.6.2/../../../../arm-none-eabi/lib/thumb/libc.a(lib_a-abort.o)
_free_r                                           /Users/e125754/etrobo/yagarto-4.6.2/bin/../lib/gcc/arm-none-eabi/4.6.2/../../../../arm-none-eabi/lib/thumb/libc.a(lib_a-freer.o)
                                                  /Users/e125754/etrobo/yagarto-4.6.2/bin/../lib/gcc/arm-none-eabi/4.6.2/../../../../arm-none-eabi/lib/thumb/libc.a(lib_a-reent.o)
                                                  /Users/e125754/etrobo/yagarto-4.6.2/bin/../lib/gcc/arm-none-eabi/4.6.2/../../../../arm-none-eabi/lib/thumb/libc.a(lib_a-mallocr.o)
_getpid                                           /Users/e125754/etrobo/yagarto-4.6.2/bin/../lib/gcc/arm-none-eabi/4.6.2/../../../../arm-none-eabi/lib/thumb/libc.a(lib_a-signalr.o)
_getpid_r                                         /Users/e125754/etrobo/yagarto-4.6.2/bin/../lib/gcc/arm-none-eabi/4.6.2/../../../../arm-none-eabi/lib/thumb/libc.a(lib_a-signalr.o)
                                                  /Users/e125754/etrobo/yagarto-4.6.2/bin/../lib/gcc/arm-none-eabi/4.6.2/../../../../arm-none-eabi/lib/thumb/libc.a(lib_a-signal.o)
_global_impure_ptr                                /Users/e125754/etrobo/yagarto-4.6.2/bin/../lib/gcc/arm-none-eabi/4.6.2/../../../../arm-none-eabi/lib/thumb/libc.a(lib_a-impure.o)
                                                  /Users/e125754/etrobo/yagarto-4.6.2/bin/../lib/gcc/arm-none-eabi/4.6.2/../../../../arm-none-eabi/lib/thumb/libc.a(lib_a-__call_atexit.o)
_impure_ptr                                       /Users/e125754/etrobo/yagarto-4.6.2/bin/../lib/gcc/arm-none-eabi/4.6.2/../../../../arm-none-eabi/lib/thumb/libc.a(lib_a-impure.o)
                                                  /Users/e125754/etrobo/yagarto-4.6.2/bin/../lib/gcc/arm-none-eabi/4.6.2/../../../../arm-none-eabi/lib/thumb/libc.a(lib_a-reent.o)
                                                  /Users/e125754/etrobo/yagarto-4.6.2/bin/../lib/gcc/arm-none-eabi/4.6.2/../../../../arm-none-eabi/lib/thumb/libc.a(lib_a-signal.o)
_init_signal                                      /Users/e125754/etrobo/yagarto-4.6.2/bin/../lib/gcc/arm-none-eabi/4.6.2/../../../../arm-none-eabi/lib/thumb/libc.a(lib_a-signal.o)
_init_signal_r                                    /Users/e125754/etrobo/yagarto-4.6.2/bin/../lib/gcc/arm-none-eabi/4.6.2/../../../../arm-none-eabi/lib/thumb/libc.a(lib_a-signal.o)
_interrupt                                        build/config/at91sam7s-gnu/cpu_support.oram
                                                  build/config/at91sam7s-gnu/irq.oram
_kill                                             /Users/e125754/etrobo/yagarto-4.6.2/bin/../lib/gcc/arm-none-eabi/4.6.2/../../../../arm-none-eabi/lib/thumb/libc.a(lib_a-signalr.o)
_kill_r                                           /Users/e125754/etrobo/yagarto-4.6.2/bin/../lib/gcc/arm-none-eabi/4.6.2/../../../../arm-none-eabi/lib/thumb/libc.a(lib_a-signalr.o)
                                                  /Users/e125754/etrobo/yagarto-4.6.2/bin/../lib/gcc/arm-none-eabi/4.6.2/../../../../arm-none-eabi/lib/thumb/libc.a(lib_a-signal.o)
_malloc_r                                         /Users/e125754/etrobo/yagarto-4.6.2/bin/../lib/gcc/arm-none-eabi/4.6.2/../../../../arm-none-eabi/lib/thumb/libc.a(lib_a-mallocr.o)
                                                  /Users/e125754/etrobo/yagarto-4.6.2/bin/../lib/gcc/arm-none-eabi/4.6.2/../../../../arm-none-eabi/lib/thumb/libc.a(lib_a-signal.o)
_malloc_trim_r                                    /Users/e125754/etrobo/yagarto-4.6.2/bin/../lib/gcc/arm-none-eabi/4.6.2/../../../../arm-none-eabi/lib/thumb/libc.a(lib_a-freer.o)
_raise_r                                          /Users/e125754/etrobo/yagarto-4.6.2/bin/../lib/gcc/arm-none-eabi/4.6.2/../../../../arm-none-eabi/lib/thumb/libc.a(lib_a-signal.o)
_reclaim_reent                                    /Users/e125754/etrobo/yagarto-4.6.2/bin/../lib/gcc/arm-none-eabi/4.6.2/../../../../arm-none-eabi/lib/thumb/libc.a(lib_a-reent.o)
_sbrk_r                                           build/syscalls.o
                                                  /Users/e125754/etrobo/yagarto-4.6.2/bin/../lib/gcc/arm-none-eabi/4.6.2/../../../../arm-none-eabi/lib/thumb/libc.a(lib_a-freer.o)
                                                  /Users/e125754/etrobo/yagarto-4.6.2/bin/../lib/gcc/arm-none-eabi/4.6.2/../../../../arm-none-eabi/lib/thumb/libc.a(lib_a-mallocr.o)
_signal_r                                         /Users/e125754/etrobo/yagarto-4.6.2/bin/../lib/gcc/arm-none-eabi/4.6.2/../../../../arm-none-eabi/lib/thumb/libc.a(lib_a-signal.o)
_wrapup_reent                                     /Users/e125754/etrobo/yagarto-4.6.2/bin/../lib/gcc/arm-none-eabi/4.6.2/../../../../arm-none-eabi/lib/thumb/libc.a(lib_a-reent.o)
abort                                             /Users/e125754/etrobo/yagarto-4.6.2/bin/../lib/gcc/arm-none-eabi/4.6.2/../../../../arm-none-eabi/lib/thumb/libc.a(lib_a-abort.o)
                                                  /Users/e125754/etrobo/yagarto-4.6.2/bin/../lib/gcc/arm-none-eabi/4.6.2/thumb/libgcc.a(pr-support.o)
                                                  /Users/e125754/etrobo/yagarto-4.6.2/bin/../lib/gcc/arm-none-eabi/4.6.2/thumb/libgcc.a(unwind-arm.o)
activate_r                                        build/config/at91sam7s-gnu/cpu_support.oram
                                                  build/kernel/task.o
add_status_info                                   build/ecrobot_base.o
                                                  build/ecrobot.o
                                                  build/ecrobot_bluetooth.o
aic_clear                                         ../../../nxtOSEK/ecrobot/../ecrobot/libecrobot.a(aic.oram)
                                                  ../../../nxtOSEK/ecrobot/../ecrobot/libecrobot.a(bt.oram)
                                                  ../../../nxtOSEK/ecrobot/../ecrobot/libecrobot.a(sound.oram)
aic_initialise                                    ../../../nxtOSEK/ecrobot/../ecrobot/libecrobot.a(aic.oram)
                                                  ../../../nxtOSEK/ecrobot/../ecrobot/libecrobot.a(flash_loader.oram)
aic_mask_off                                      ../../../nxtOSEK/ecrobot/../ecrobot/libecrobot.a(aic.oram)
                                                  ../../../nxtOSEK/ecrobot/../ecrobot/libecrobot.a(bt.oram)
                                                  ../../../nxtOSEK/ecrobot/../ecrobot/libecrobot.a(i2c.oram)
                                                  ../../../nxtOSEK/ecrobot/../ecrobot/libecrobot.a(nxt_motors.oram)
                                                  ../../../nxtOSEK/ecrobot/../ecrobot/libecrobot.a(nxt_spi.oram)
                                                  ../../../nxtOSEK/ecrobot/../ecrobot/libecrobot.a(twi.oram)
                                                  ../../../nxtOSEK/ecrobot/../ecrobot/libecrobot.a(udp.oram)
                                                  ../../../nxtOSEK/ecrobot/../ecrobot/libecrobot.a(systick.oram)
                                                  ../../../nxtOSEK/ecrobot/../ecrobot/libecrobot.a(uart.oram)
aic_mask_on                                       ../../../nxtOSEK/ecrobot/../ecrobot/libecrobot.a(aic.oram)
                                                  ../../../nxtOSEK/ecrobot/../ecrobot/libecrobot.a(sound.oram)
                                                  ../../../nxtOSEK/ecrobot/../ecrobot/libecrobot.a(i2c.oram)
                                                  ../../../nxtOSEK/ecrobot/../ecrobot/libecrobot.a(nxt_motors.oram)
                                                  ../../../nxtOSEK/ecrobot/../ecrobot/libecrobot.a(nxt_spi.oram)
                                                  ../../../nxtOSEK/ecrobot/../ecrobot/libecrobot.a(twi.oram)
                                                  ../../../nxtOSEK/ecrobot/../ecrobot/libecrobot.a(udp.oram)
                                                  ../../../nxtOSEK/ecrobot/../ecrobot/libecrobot.a(systick.oram)
                                                  ../../../nxtOSEK/ecrobot/../ecrobot/libecrobot.a(uart.oram)
aic_set_vector                                    ../../../nxtOSEK/ecrobot/../ecrobot/libecrobot.a(aic.oram)
                                                  ../../../nxtOSEK/ecrobot/../ecrobot/libecrobot.a(sound.oram)
                                                  ../../../nxtOSEK/ecrobot/../ecrobot/libecrobot.a(i2c.oram)
                                                  ../../../nxtOSEK/ecrobot/../ecrobot/libecrobot.a(nxt_motors.oram)
                                                  ../../../nxtOSEK/ecrobot/../ecrobot/libecrobot.a(nxt_spi.oram)
                                                  ../../../nxtOSEK/ecrobot/../ecrobot/libecrobot.a(twi.oram)
                                                  ../../../nxtOSEK/ecrobot/../ecrobot/libecrobot.a(udp.oram)
                                                  ../../../nxtOSEK/ecrobot/../ecrobot/libecrobot.a(systick.oram)
                                                  ../../../nxtOSEK/ecrobot/../ecrobot/libecrobot.a(uart.oram)
alarm_initialize                                  build/kernel/alarm.o
almcb_almval                                      build/./kernel_cfg.o
                                                  build/kernel/alarm.o
almcb_cycle                                       build/./kernel_cfg.o
                                                  build/kernel/alarm.o
almcb_next                                        build/./kernel_cfg.o
                                                  build/kernel/alarm.o
almcb_prev                                        build/./kernel_cfg.o
                                                  build/kernel/alarm.o
alminib_almval                                    build/./kernel_cfg.o
                                                  build/kernel/alarm.o
alminib_autosta                                   build/./kernel_cfg.o
                                                  build/kernel/alarm.o
alminib_cback                                     build/./kernel_cfg.o
                                                  build/kernel/alarm.o
alminib_cntid                                     build/./kernel_cfg.o
                                                  build/kernel/alarm.o
alminib_cycle                                     build/./kernel_cfg.o
                                                  build/kernel/alarm.o
appmode                                           build/kernel/task.o
                                                  build/kernel/osctl.o
                                                  build/kernel/alarm.o
avr_brainwash_string                              ../../../nxtOSEK/ecrobot/../ecrobot/libecrobot.a(nxt_avr.oram)
balance_control                                   ../../../nxtOSEK/ecrobot/../ecrobot/libnxtway_gs_balancer.a(balancer.o)
                                                  build/sample.o
balance_init                                      ../../../nxtOSEK/ecrobot/../ecrobot/libnxtway_gs_balancer.a(balancer.o)
                                                  build/sample.o
battery_voltage                                   ../../../nxtOSEK/ecrobot/../ecrobot/libecrobot.a(nxt_avr.oram)
                                                  ../../../nxtOSEK/ecrobot/../ecrobot/libecrobot.a(ecrobot_interface.o)
bt_clear_arm7_cmd                                 ../../../nxtOSEK/ecrobot/../ecrobot/libecrobot.a(bt.oram)
                                                  build/ecrobot_bluetooth.o
bt_get_mode                                       ../../../nxtOSEK/ecrobot/../ecrobot/libecrobot.a(bt.oram)
bt_init                                           ../../../nxtOSEK/ecrobot/../ecrobot/libecrobot.a(bt.oram)
                                                  ../../../nxtOSEK/ecrobot/../ecrobot/libecrobot.a(flash_loader.oram)
bt_pending                                        ../../../nxtOSEK/ecrobot/../ecrobot/libecrobot.a(bt.oram)
                                                  build/ecrobot_bluetooth.o
bt_read                                           ../../../nxtOSEK/ecrobot/../ecrobot/libecrobot.a(bt.oram)
                                                  build/ecrobot_bluetooth.o
bt_receive                                        ../../../nxtOSEK/ecrobot/../ecrobot/libecrobot.a(bt.oram)
                                                  build/ecrobot_bluetooth.o
bt_reset                                          ../../../nxtOSEK/ecrobot/../ecrobot/libecrobot.a(bt.oram)
                                                  build/ecrobot_bluetooth.o
bt_send                                           ../../../nxtOSEK/ecrobot/../ecrobot/libecrobot.a(bt.oram)
                                                  build/ecrobot_bluetooth.o
bt_set_arm7_cmd                                   ../../../nxtOSEK/ecrobot/../ecrobot/libecrobot.a(bt.oram)
                                                  build/ecrobot_bluetooth.o
bt_set_reset_high                                 ../../../nxtOSEK/ecrobot/../ecrobot/libecrobot.a(bt.oram)
bt_set_reset_low                                  ../../../nxtOSEK/ecrobot/../ecrobot/libecrobot.a(bt.oram)
bt_start_ad_converter                             ../../../nxtOSEK/ecrobot/../ecrobot/libecrobot.a(bt.oram)
bt_write                                          ../../../nxtOSEK/ecrobot/../ecrobot/libecrobot.a(bt.oram)
                                                  build/ecrobot_bluetooth.o
buttons_get                                       ../../../nxtOSEK/ecrobot/../ecrobot/libecrobot.a(nxt_avr.oram)
                                                  ../../../nxtOSEK/ecrobot/../ecrobot/libecrobot.a(flash_loader.oram)
                                                  ../../../nxtOSEK/ecrobot/../ecrobot/libecrobot.a(sensors.oram)
                                                  ../../../nxtOSEK/ecrobot/../ecrobot/libecrobot.a(ecrobot_interface.o)
byte_fifo_clear                                   ../../../nxtOSEK/ecrobot/../ecrobot/libecrobot.a(byte_fifo.oram)
byte_fifo_get                                     ../../../nxtOSEK/ecrobot/../ecrobot/libecrobot.a(byte_fifo.oram)
                                                  ../../../nxtOSEK/ecrobot/../ecrobot/libecrobot.a(uart.oram)
byte_fifo_init                                    ../../../nxtOSEK/ecrobot/../ecrobot/libecrobot.a(byte_fifo.oram)
                                                  ../../../nxtOSEK/ecrobot/../ecrobot/libecrobot.a(uart.oram)
byte_fifo_put                                     ../../../nxtOSEK/ecrobot/../ecrobot/libecrobot.a(byte_fifo.oram)
                                                  ../../../nxtOSEK/ecrobot/../ecrobot/libecrobot.a(uart.oram)
call_errorhook                                    build/kernel/osctl.o
                                                  build/kernel/task_manage.o
                                                  build/kernel/resource.o
                                                  build/kernel/event.o
                                                  build/kernel/alarm.o
call_posttaskhook                                 build/kernel/osctl.o
                                                  build/config/at91sam7s-gnu/cpu_support.oram
call_pretaskhook                                  build/kernel/osctl.o
                                                  build/config/at91sam7s-gnu/cpu_support.oram
callevel                                          build/config/at91sam7s-gnu/cpu_support.oram
                                                  build/kernel/task_manage.o
                                                  build/kernel/resource.o
                                                  build/kernel/osctl.o
                                                  build/kernel/interrupt.o
                                                  build/kernel/event.o
                                                  build/kernel/alarm.o
check_NXT_buttons                                 build/ecrobot_base.o
                                                  build/syslib/at91sam7s-gnu/lego_nxt/hw_sys_timer.oram
check_for_data                                    ../../../nxtOSEK/ecrobot/../ecrobot/libecrobot.a(sensors.oram)
cleanup_glue                                      /Users/e125754/etrobo/yagarto-4.6.2/bin/../lib/gcc/arm-none-eabi/4.6.2/../../../../arm-none-eabi/lib/thumb/libc.a(lib_a-reent.o)
clear_flash_request                               ../../../nxtOSEK/ecrobot/../ecrobot/libecrobot.a(flash_loader.oram)
cntcb_almque                                      build/./kernel_cfg.o
                                                  build/kernel/alarm.o
cntcb_curval                                      build/./kernel_cfg.o
                                                  build/kernel/alarm.o
cntinib_maxval                                    build/./kernel_cfg.o
                                                  build/kernel/alarm.o
cntinib_maxval2                                   build/./kernel_cfg.o
                                                  build/kernel/alarm.o
cntinib_mincyc                                    build/./kernel_cfg.o
                                                  build/kernel/alarm.o
cntinib_tickbase                                  build/./kernel_cfg.o
                                                  build/kernel/alarm.o
colorsensor_color_get                             ../../../nxtOSEK/ecrobot/../ecrobot/libecrobot.a(colorsensor.o)
                                                  ../../../nxtOSEK/ecrobot/../ecrobot/libecrobot.a(ecrobot_interface.o)
colorsensor_init                                  ../../../nxtOSEK/ecrobot/../ecrobot/libecrobot.a(colorsensor.o)
                                                  ../../../nxtOSEK/ecrobot/../ecrobot/libecrobot.a(ecrobot_interface.o)
colorsensor_light_full                            ../../../nxtOSEK/ecrobot/../ecrobot/libecrobot.a(colorsensor.o)
                                                  ../../../nxtOSEK/ecrobot/../ecrobot/libecrobot.a(ecrobot_interface.o)
colorsensor_light_get                             ../../../nxtOSEK/ecrobot/../ecrobot/libecrobot.a(colorsensor.o)
                                                  ../../../nxtOSEK/ecrobot/../ecrobot/libecrobot.a(ecrobot_interface.o)
colorsensor_rgb_get                               ../../../nxtOSEK/ecrobot/../ecrobot/libecrobot.a(colorsensor.o)
                                                  ../../../nxtOSEK/ecrobot/../ecrobot/libecrobot.a(ecrobot_interface.o)
colorsensor_term                                  ../../../nxtOSEK/ecrobot/../ecrobot/libecrobot.a(colorsensor.o)
                                                  ../../../nxtOSEK/ecrobot/../ecrobot/libecrobot.a(ecrobot_interface.o)
cpp_constructor                                   build/ecrobot_base.o
                                                  build/ecrobot.o
cpp_destructor                                    build/ecrobot_base.o
cpu_initialize                                    build/config/at91sam7s-gnu/cpu_config.o
                                                  build/kernel/osctl.o
cpu_terminate                                     build/config/at91sam7s-gnu/cpu_config.o
                                                  build/kernel/osctl.o
data                                              ../../../nxtOSEK/ecrobot/../ecrobot/libecrobot.a(nxt_spi.oram)
data_abort_C                                      ../../../nxtOSEK/ecrobot/../ecrobot/libecrobot.a(data_abort.oram)
                                                  build/ecrobot_init.o
data_abort_handler                                build/ecrobot_init.o
                                                  build/nxtvm/platform/nxt/vectors.o
                                                  build/nxtvm/platform/nxt/vectors.o
data_abort_pc                                     ../../../nxtOSEK/ecrobot/../ecrobot/libecrobot.a(data_abort.oram)
                                                  build/ecrobot_init.o
debug1                                            build/config/at91sam7s-gnu/debug.o
debug2                                            build/config/at91sam7s-gnu/debug.o
default_fiq                                       build/config/at91sam7s-gnu/irq.oram
                                                  ../../../nxtOSEK/ecrobot/../ecrobot/libecrobot.a(aic.oram)
default_isr                                       build/config/at91sam7s-gnu/irq.oram
                                                  ../../../nxtOSEK/ecrobot/../ecrobot/libecrobot.a(aic.oram)
dirty                                             ../../../nxtOSEK/ecrobot/../ecrobot/libecrobot.a(nxt_spi.oram)
disable_int                                       build/config/at91sam7s-gnu/cpu_support.oram
                                                  build/ecrobot.o
                                                  build/kernel/task_manage.o
                                                  build/kernel/resource.o
                                                  build/kernel/osctl.o
                                                  build/kernel/interrupt.o
                                                  build/kernel/event.o
                                                  build/kernel/alarm.o
dispatch                                          build/config/at91sam7s-gnu/cpu_support.oram
                                                  build/kernel/task_manage.o
                                                  build/kernel/resource.o
                                                  build/kernel/event.o
dispatch_r                                        build/config/at91sam7s-gnu/cpu_support.oram
display                                           ../../../nxtOSEK/ecrobot/../ecrobot/libecrobot.a(nxt_spi.oram)
display_auto_update                               ../../../nxtOSEK/ecrobot/../ecrobot/libecrobot.a(display.oram)
display_bios_status                               ../../../nxtOSEK/ecrobot/../ecrobot/libecrobot.a(flash_loader.oram)
display_bitmap_copy                               ../../../nxtOSEK/ecrobot/../ecrobot/libecrobot.a(display.oram)
                                                  build/ecrobot_base.o
display_char                                      ../../../nxtOSEK/ecrobot/../ecrobot/libecrobot.a(display.oram)
display_clear                                     ../../../nxtOSEK/ecrobot/../ecrobot/libecrobot.a(display.oram)
                                                  ../../../nxtOSEK/ecrobot/../ecrobot/libecrobot.a(flash_loader.oram)
                                                  ../../../nxtOSEK/ecrobot/../ecrobot/libecrobot.a(data_abort.oram)
                                                  ../../../nxtOSEK/ecrobot/../ecrobot/libecrobot.a(ecrobot_interface.o)
                                                  build/ecrobot.o
                                                  build/ecrobot_base.o
display_force_update                              ../../../nxtOSEK/ecrobot/../ecrobot/libecrobot.a(display.oram)
                                                  ../../../nxtOSEK/ecrobot/../ecrobot/libecrobot.a(data_abort.oram)
                                                  build/ecrobot_base.o
display_get_array                                 ../../../nxtOSEK/ecrobot/../ecrobot/libecrobot.a(display.oram)
display_get_buffer                                ../../../nxtOSEK/ecrobot/../ecrobot/libecrobot.a(display.oram)
display_goto_xy                                   ../../../nxtOSEK/ecrobot/../ecrobot/libecrobot.a(display.oram)
                                                  ../../../nxtOSEK/ecrobot/../ecrobot/libecrobot.a(data_abort.oram)
                                                  ../../../nxtOSEK/ecrobot/../ecrobot/libecrobot.a(ecrobot_interface.o)
                                                  build/sample.o
                                                  build/ecrobot_base.o
display_hex                                       ../../../nxtOSEK/ecrobot/../ecrobot/libecrobot.a(display.oram)
                                                  ../../../nxtOSEK/ecrobot/../ecrobot/libecrobot.a(data_abort.oram)
                                                  build/ecrobot_base.o
display_init                                      ../../../nxtOSEK/ecrobot/../ecrobot/libecrobot.a(display.oram)
                                                  ../../../nxtOSEK/ecrobot/../ecrobot/libecrobot.a(flash_loader.oram)
display_int                                       ../../../nxtOSEK/ecrobot/../ecrobot/libecrobot.a(display.oram)
                                                  ../../../nxtOSEK/ecrobot/../ecrobot/libecrobot.a(ecrobot_interface.o)
                                                  build/sample.o
display_set_auto_update                           ../../../nxtOSEK/ecrobot/../ecrobot/libecrobot.a(display.oram)
display_status_bar                                build/ecrobot_base.o
                                                  build/ecrobot.o
display_string                                    ../../../nxtOSEK/ecrobot/../ecrobot/libecrobot.a(display.oram)
                                                  ../../../nxtOSEK/ecrobot/../ecrobot/libecrobot.a(data_abort.oram)
                                                  ../../../nxtOSEK/ecrobot/../ecrobot/libecrobot.a(ecrobot_interface.o)
                                                  build/sample.o
                                                  build/ecrobot_base.o
display_test                                      ../../../nxtOSEK/ecrobot/../ecrobot/libecrobot.a(display.oram)
display_tick                                      ../../../nxtOSEK/ecrobot/../ecrobot/libecrobot.a(display.oram)
display_unsigned                                  ../../../nxtOSEK/ecrobot/../ecrobot/libecrobot.a(display.oram)
                                                  ../../../nxtOSEK/ecrobot/../ecrobot/libecrobot.a(ecrobot_interface.o)
                                                  build/ecrobot_base.o
display_update                                    ../../../nxtOSEK/ecrobot/../ecrobot/libecrobot.a(display.oram)
                                                  ../../../nxtOSEK/ecrobot/../ecrobot/libecrobot.a(ecrobot_interface.o)
                                                  build/sample.o
                                                  build/ecrobot_base.o
display_x                                         ../../../nxtOSEK/ecrobot/../ecrobot/libecrobot.a(display.oram)
display_y                                         ../../../nxtOSEK/ecrobot/../ecrobot/libecrobot.a(display.oram)
ecrobot_adc_data_monitor                          ../../../nxtOSEK/ecrobot/../ecrobot/libecrobot.a(ecrobot_interface.o)
ecrobot_bmp2lcd                                   ../../../nxtOSEK/ecrobot/../ecrobot/libecrobot.a(ecrobot_interface.o)
                                                  build/ecrobot_base.o
ecrobot_bt_adc_data_logger                        ../../../nxtOSEK/ecrobot/../ecrobot/libecrobot.a(ecrobot_interface.o)
ecrobot_bt_data_logger                            ../../../nxtOSEK/ecrobot/../ecrobot/libecrobot.a(ecrobot_interface.o)
ecrobot_cal_color_sensor                          ../../../nxtOSEK/ecrobot/../ecrobot/libecrobot.a(ecrobot_HiTechnic.o)
ecrobot_cal_compass_sensor                        ../../../nxtOSEK/ecrobot/../ecrobot/libecrobot.a(ecrobot_HiTechnic.o)
ecrobot_debug                                     ../../../nxtOSEK/ecrobot/../ecrobot/libecrobot.a(ecrobot_interface.o)
ecrobot_debug1                                    ../../../nxtOSEK/ecrobot/../ecrobot/libecrobot.a(ecrobot_interface.o)
                                                  build/config/at91sam7s-gnu/debug.o
ecrobot_debug2                                    ../../../nxtOSEK/ecrobot/../ecrobot/libecrobot.a(ecrobot_interface.o)
                                                  build/config/at91sam7s-gnu/debug.o
ecrobot_device_initialize                         build/sample.o
                                                  build/ecrobot.o
ecrobot_device_terminate                          build/sample.o
                                                  build/ecrobot.o
                                                  build/ecrobot_base.o
ecrobot_disconnect_usb                            ../../../nxtOSEK/ecrobot/../ecrobot/libecrobot.a(ecrobot_usb.o)
ecrobot_get_RCX_sensor                            ../../../nxtOSEK/ecrobot/../ecrobot/libecrobot.a(ecrobot_interface.o)
ecrobot_get_RCX_touch_sensor                      ../../../nxtOSEK/ecrobot/../ecrobot/libecrobot.a(ecrobot_interface.o)
ecrobot_get_accel_sensor                          ../../../nxtOSEK/ecrobot/../ecrobot/libecrobot.a(ecrobot_HiTechnic.o)
ecrobot_get_battery_voltage                       ../../../nxtOSEK/ecrobot/../ecrobot/libecrobot.a(ecrobot_interface.o)
                                                  build/sample.o
                                                  build/ecrobot_base.o
ecrobot_get_bt_device_address                     build/ecrobot_bluetooth.o
ecrobot_get_bt_device_name                        build/ecrobot_bluetooth.o
ecrobot_get_bt_signal_strength                    build/ecrobot_bluetooth.o
ecrobot_get_bt_status                             build/ecrobot_bluetooth.o
                                                  ../../../nxtOSEK/ecrobot/../ecrobot/libecrobot.a(ecrobot_interface.o)
ecrobot_get_button_state                          ../../../nxtOSEK/ecrobot/../ecrobot/libecrobot.a(ecrobot_interface.o)
                                                  build/ecrobot.o
                                                  build/ecrobot_base.o
ecrobot_get_color_sensor                          ../../../nxtOSEK/ecrobot/../ecrobot/libecrobot.a(ecrobot_HiTechnic.o)
ecrobot_get_compass_sensor                        ../../../nxtOSEK/ecrobot/../ecrobot/libecrobot.a(ecrobot_HiTechnic.o)
ecrobot_get_gyro_sensor                           ../../../nxtOSEK/ecrobot/../ecrobot/libecrobot.a(ecrobot_HiTechnic.o)
                                                  build/sample.o
ecrobot_get_ir_seeker                             ../../../nxtOSEK/ecrobot/../ecrobot/libecrobot.a(ecrobot_HiTechnic.o)
ecrobot_get_light_sensor                          ../../../nxtOSEK/ecrobot/../ecrobot/libecrobot.a(ecrobot_interface.o)
                                                  build/sample.o
ecrobot_get_motor_rev                             ../../../nxtOSEK/ecrobot/../ecrobot/libecrobot.a(ecrobot_interface.o)
ecrobot_get_nxtcolorsensor_id                     ../../../nxtOSEK/ecrobot/../ecrobot/libecrobot.a(ecrobot_interface.o)
ecrobot_get_nxtcolorsensor_light                  ../../../nxtOSEK/ecrobot/../ecrobot/libecrobot.a(ecrobot_interface.o)
ecrobot_get_nxtcolorsensor_mode                   ../../../nxtOSEK/ecrobot/../ecrobot/libecrobot.a(ecrobot_interface.o)
ecrobot_get_nxtcolorsensor_rgb                    ../../../nxtOSEK/ecrobot/../ecrobot/libecrobot.a(ecrobot_interface.o)
ecrobot_get_prototype_analog_sensor               ../../../nxtOSEK/ecrobot/../ecrobot/libecrobot.a(ecrobot_HiTechnic.o)
ecrobot_get_prototype_digital_sensor              ../../../nxtOSEK/ecrobot/../ecrobot/libecrobot.a(ecrobot_HiTechnic.o)
ecrobot_get_prototype_sensor                      ../../../nxtOSEK/ecrobot/../ecrobot/libecrobot.a(ecrobot_HiTechnic.o)
ecrobot_get_sonar_sensor                          ../../../nxtOSEK/ecrobot/../ecrobot/libecrobot.a(ecrobot_interface.o)
ecrobot_get_sound_sensor                          ../../../nxtOSEK/ecrobot/../ecrobot/libecrobot.a(ecrobot_interface.o)
ecrobot_get_systick_ms                            ../../../nxtOSEK/ecrobot/../ecrobot/libecrobot.a(ecrobot_interface.o)
ecrobot_get_touch_sensor                          ../../../nxtOSEK/ecrobot/../ecrobot/libecrobot.a(ecrobot_interface.o)
ecrobot_initDeviceStatus                          ../../../nxtOSEK/ecrobot/../ecrobot/libecrobot.a(ecrobot_interface.o)
                                                  build/ecrobot.o
ecrobot_init_accel_sensor                         ../../../nxtOSEK/ecrobot/../ecrobot/libecrobot.a(ecrobot_HiTechnic.o)
ecrobot_init_bt_connection                        build/ecrobot_bluetooth.o
ecrobot_init_bt_master                            build/ecrobot_bluetooth.o
ecrobot_init_bt_slave                             build/ecrobot_bluetooth.o
                                                  build/sample.o
ecrobot_init_color_sensor                         ../../../nxtOSEK/ecrobot/../ecrobot/libecrobot.a(ecrobot_HiTechnic.o)
ecrobot_init_compass_sensor                       ../../../nxtOSEK/ecrobot/../ecrobot/libecrobot.a(ecrobot_HiTechnic.o)
ecrobot_init_i2c                                  ../../../nxtOSEK/ecrobot/../ecrobot/libecrobot.a(ecrobot_interface.o)
                                                  ../../../nxtOSEK/ecrobot/../ecrobot/libecrobot.a(ecrobot_HiTechnic.o)
ecrobot_init_ir_seeker                            ../../../nxtOSEK/ecrobot/../ecrobot/libecrobot.a(ecrobot_HiTechnic.o)
ecrobot_init_nxtcolorsensor                       ../../../nxtOSEK/ecrobot/../ecrobot/libecrobot.a(ecrobot_interface.o)
ecrobot_init_nxtstate                             ../../../nxtOSEK/ecrobot/../ecrobot/libecrobot.a(ecrobot_interface.o)
                                                  build/ecrobot.o
ecrobot_init_prototype_sensor                     ../../../nxtOSEK/ecrobot/../ecrobot/libecrobot.a(ecrobot_HiTechnic.o)
ecrobot_init_sonar_sensor                         ../../../nxtOSEK/ecrobot/../ecrobot/libecrobot.a(ecrobot_interface.o)
ecrobot_init_tetrix                               ../../../nxtOSEK/ecrobot/../ecrobot/libecrobot.a(ecrobot_HiTechnic.o)
ecrobot_init_usb                                  ../../../nxtOSEK/ecrobot/../ecrobot/libecrobot.a(ecrobot_usb.o)
                                                  ../../../nxtOSEK/ecrobot/../ecrobot/libecrobot.a(flash_loader.oram)
ecrobot_is_ENTER_button_pressed                   ../../../nxtOSEK/ecrobot/../ecrobot/libecrobot.a(ecrobot_interface.o)
ecrobot_is_RUN_button_pressed                     ../../../nxtOSEK/ecrobot/../ecrobot/libecrobot.a(ecrobot_interface.o)
ecrobot_is_usb_connected                          ../../../nxtOSEK/ecrobot/../ecrobot/libecrobot.a(ecrobot_usb.o)
ecrobot_poll_nxtstate                             ../../../nxtOSEK/ecrobot/../ecrobot/libecrobot.a(ecrobot_interface.o)
                                                  build/ecrobot.o
                                                  build/ecrobot_base.o
ecrobot_process1ms_usb                            ../../../nxtOSEK/ecrobot/../ecrobot/libecrobot.a(ecrobot_usb.o)
                                                  ../../../nxtOSEK/ecrobot/../ecrobot/libecrobot.a(flash_loader.oram)
ecrobot_process_bg_nxtcolorsensor                 ../../../nxtOSEK/ecrobot/../ecrobot/libecrobot.a(ecrobot_interface.o)
ecrobot_read_bt                                   build/ecrobot_bluetooth.o
                                                  build/sample.o
ecrobot_read_bt_packet                            build/ecrobot_bluetooth.o
ecrobot_read_i2c                                  ../../../nxtOSEK/ecrobot/../ecrobot/libecrobot.a(ecrobot_interface.o)
                                                  ../../../nxtOSEK/ecrobot/../ecrobot/libecrobot.a(ecrobot_HiTechnic.o)
ecrobot_read_usb                                  ../../../nxtOSEK/ecrobot/../ecrobot/libecrobot.a(ecrobot_usb.o)
                                                  ../../../nxtOSEK/ecrobot/../ecrobot/libecrobot.a(flash_loader.oram)
ecrobot_restart_NXT                               ../../../nxtOSEK/ecrobot/../ecrobot/libecrobot.a(ecrobot_interface.o)
ecrobot_send_bt                                   build/ecrobot_bluetooth.o
                                                  build/sample.o
ecrobot_send_bt_packet                            build/ecrobot_bluetooth.o
                                                  ../../../nxtOSEK/ecrobot/../ecrobot/libecrobot.a(ecrobot_interface.o)
ecrobot_send_i2c                                  ../../../nxtOSEK/ecrobot/../ecrobot/libecrobot.a(ecrobot_interface.o)
                                                  ../../../nxtOSEK/ecrobot/../ecrobot/libecrobot.a(ecrobot_HiTechnic.o)
ecrobot_send_prototype_digital_sensor             ../../../nxtOSEK/ecrobot/../ecrobot/libecrobot.a(ecrobot_HiTechnic.o)
ecrobot_send_usb                                  ../../../nxtOSEK/ecrobot/../ecrobot/libecrobot.a(ecrobot_usb.o)
                                                  ../../../nxtOSEK/ecrobot/../ecrobot/libecrobot.a(flash_loader.oram)
ecrobot_setDeviceInitialized                      ../../../nxtOSEK/ecrobot/../ecrobot/libecrobot.a(ecrobot_interface.o)
                                                  build/ecrobot.o
ecrobot_set_RCX_power_source                      ../../../nxtOSEK/ecrobot/../ecrobot/libecrobot.a(ecrobot_interface.o)
ecrobot_set_bt_device_name                        build/ecrobot_bluetooth.o
                                                  build/sample.o
ecrobot_set_bt_factory_settings                   build/ecrobot_bluetooth.o
ecrobot_set_light_sensor_active                   ../../../nxtOSEK/ecrobot/../ecrobot/libecrobot.a(ecrobot_interface.o)
                                                  build/sample.o
ecrobot_set_light_sensor_inactive                 ../../../nxtOSEK/ecrobot/../ecrobot/libecrobot.a(ecrobot_interface.o)
                                                  build/sample.o
ecrobot_set_motor_mode_speed                      ../../../nxtOSEK/ecrobot/../ecrobot/libecrobot.a(ecrobot_interface.o)
ecrobot_set_motor_rev                             ../../../nxtOSEK/ecrobot/../ecrobot/libecrobot.a(ecrobot_interface.o)
ecrobot_set_motor_speed                           ../../../nxtOSEK/ecrobot/../ecrobot/libecrobot.a(ecrobot_interface.o)
ecrobot_set_name_usb                              ../../../nxtOSEK/ecrobot/../ecrobot/libecrobot.a(ecrobot_usb.o)
                                                  ../../../nxtOSEK/ecrobot/../ecrobot/libecrobot.a(flash_loader.oram)
ecrobot_set_nxtcolorsensor                        ../../../nxtOSEK/ecrobot/../ecrobot/libecrobot.a(ecrobot_interface.o)
ecrobot_show_int                                  ../../../nxtOSEK/ecrobot/../ecrobot/libecrobot.a(ecrobot_interface.o)
ecrobot_shutdown_NXT                              ../../../nxtOSEK/ecrobot/../ecrobot/libecrobot.a(ecrobot_interface.o)
ecrobot_sint_var_monitor                          ../../../nxtOSEK/ecrobot/../ecrobot/libecrobot.a(ecrobot_interface.o)
ecrobot_sound_tone                                ../../../nxtOSEK/ecrobot/../ecrobot/libecrobot.a(ecrobot_interface.o)
ecrobot_sound_wav                                 ../../../nxtOSEK/ecrobot/../ecrobot/libecrobot.a(ecrobot_interface.o)
ecrobot_status_monitor                            ../../../nxtOSEK/ecrobot/../ecrobot/libecrobot.a(ecrobot_interface.o)
ecrobot_term_RCX_power_source                     ../../../nxtOSEK/ecrobot/../ecrobot/libecrobot.a(ecrobot_interface.o)
ecrobot_term_accel_sensor                         ../../../nxtOSEK/ecrobot/../ecrobot/libecrobot.a(ecrobot_HiTechnic.o)
ecrobot_term_bt_connection                        build/ecrobot_bluetooth.o
                                                  build/sample.o
ecrobot_term_color_sensor                         ../../../nxtOSEK/ecrobot/../ecrobot/libecrobot.a(ecrobot_HiTechnic.o)
ecrobot_term_compass_sensor                       ../../../nxtOSEK/ecrobot/../ecrobot/libecrobot.a(ecrobot_HiTechnic.o)
ecrobot_term_i2c                                  ../../../nxtOSEK/ecrobot/../ecrobot/libecrobot.a(ecrobot_interface.o)
                                                  ../../../nxtOSEK/ecrobot/../ecrobot/libecrobot.a(ecrobot_HiTechnic.o)
ecrobot_term_ir_seeker                            ../../../nxtOSEK/ecrobot/../ecrobot/libecrobot.a(ecrobot_HiTechnic.o)
ecrobot_term_nxtcolorsensor                       ../../../nxtOSEK/ecrobot/../ecrobot/libecrobot.a(ecrobot_interface.o)
ecrobot_term_prototype_sensor                     ../../../nxtOSEK/ecrobot/../ecrobot/libecrobot.a(ecrobot_HiTechnic.o)
ecrobot_term_sonar_sensor                         ../../../nxtOSEK/ecrobot/../ecrobot/libecrobot.a(ecrobot_interface.o)
ecrobot_term_tetrix                               ../../../nxtOSEK/ecrobot/../ecrobot/libecrobot.a(ecrobot_HiTechnic.o)
ecrobot_term_usb                                  ../../../nxtOSEK/ecrobot/../ecrobot/libecrobot.a(ecrobot_usb.o)
                                                  ../../../nxtOSEK/ecrobot/../ecrobot/libecrobot.a(flash_loader.oram)
ecrobot_tetrix_battery                            ../../../nxtOSEK/ecrobot/../ecrobot/libecrobot.a(ecrobot_HiTechnic.o)
ecrobot_tetrix_motors                             ../../../nxtOSEK/ecrobot/../ecrobot/libecrobot.a(ecrobot_HiTechnic.o)
ecrobot_tetrix_servos                             ../../../nxtOSEK/ecrobot/../ecrobot/libecrobot.a(ecrobot_HiTechnic.o)
ecrobot_wait_i2c_ready                            ../../../nxtOSEK/ecrobot/../ecrobot/libecrobot.a(ecrobot_interface.o)
                                                  ../../../nxtOSEK/ecrobot/../ecrobot/libecrobot.a(ecrobot_HiTechnic.o)
enable_int                                        build/config/at91sam7s-gnu/cpu_support.oram
                                                  build/kernel/task_manage.o
                                                  build/kernel/resource.o
                                                  build/kernel/osctl.o
                                                  build/kernel/interrupt.o
                                                  build/kernel/event.o
                                                  build/kernel/alarm.o
end                                               build/syscalls.o
errno                                             /Users/e125754/etrobo/yagarto-4.6.2/bin/../lib/gcc/arm-none-eabi/4.6.2/../../../../arm-none-eabi/lib/thumb/libc.a(lib_a-reent.o)
                                                  /Users/e125754/etrobo/yagarto-4.6.2/bin/../lib/gcc/arm-none-eabi/4.6.2/../../../../arm-none-eabi/lib/thumb/libc.a(lib_a-signalr.o)
exec_addr                                         build/ecrobot_base.o
execution_mode                                    build/ecrobot_base.o
                                                  build/ecrobot.o
exit_and_dispatch                                 build/config/at91sam7s-gnu/cpu_support.oram
                                                  build/kernel/task_manage.o
fiq_enable                                        ../../../nxtOSEK/ecrobot/../ecrobot/libecrobot.a(interrupts.oram)
fiq_get_and_disable                               ../../../nxtOSEK/ecrobot/../ecrobot/libecrobot.a(interrupts.oram)
flash_erase_range                                 ../../../nxtOSEK/ecrobot/../ecrobot/libecrobot.a(flashprog.oram)
flash_loader                                      ../../../nxtOSEK/ecrobot/../ecrobot/libecrobot.a(flash_loader.oram)
flash_set_mode                                    ../../../nxtOSEK/ecrobot/../ecrobot/libecrobot.a(flashprog.oram)
flash_write                                       ../../../nxtOSEK/ecrobot/../ecrobot/libecrobot.a(flashprog.oram)
flash_write_page                                  ../../../nxtOSEK/ecrobot/../ecrobot/libecrobot.a(flashprog.oram)
                                                  ../../../nxtOSEK/ecrobot/../ecrobot/libecrobot.a(flash_loader.oram)
free                                              /Users/e125754/etrobo/yagarto-4.6.2/bin/../lib/gcc/arm-none-eabi/4.6.2/../../../../arm-none-eabi/lib/thumb/libc.a(lib_a-__call_atexit.o)
get_OS_flag                                       build/ecrobot_base.o
                                                  build/syslib/at91sam7s-gnu/lego_nxt/hw_sys_timer.oram
get_device_status                                 ../../../nxtOSEK/ecrobot/../ecrobot/libecrobot.a(ecrobot_interface.o)
has_flash_request                                 ../../../nxtOSEK/ecrobot/../ecrobot/libecrobot.a(flash_loader.oram)
i2c_busy                                          ../../../nxtOSEK/ecrobot/../ecrobot/libecrobot.a(i2c.oram)
                                                  ../../../nxtOSEK/ecrobot/../ecrobot/libecrobot.a(ecrobot_interface.o)
                                                  ../../../nxtOSEK/ecrobot/../ecrobot/libecrobot.a(ecrobot_HiTechnic.o)
i2c_disable                                       ../../../nxtOSEK/ecrobot/../ecrobot/libecrobot.a(i2c.oram)
                                                  ../../../nxtOSEK/ecrobot/../ecrobot/libecrobot.a(ecrobot_interface.o)
                                                  ../../../nxtOSEK/ecrobot/../ecrobot/libecrobot.a(ecrobot_HiTechnic.o)
i2c_enable                                        ../../../nxtOSEK/ecrobot/../ecrobot/libecrobot.a(i2c.oram)
                                                  ../../../nxtOSEK/ecrobot/../ecrobot/libecrobot.a(ecrobot_interface.o)
i2c_init                                          ../../../nxtOSEK/ecrobot/../ecrobot/libecrobot.a(i2c.oram)
                                                  ../../../nxtOSEK/ecrobot/../ecrobot/libecrobot.a(flash_loader.oram)
i2c_start_transaction                             ../../../nxtOSEK/ecrobot/../ecrobot/libecrobot.a(i2c.oram)
                                                  ../../../nxtOSEK/ecrobot/../ecrobot/libecrobot.a(ecrobot_interface.o)
                                                  ../../../nxtOSEK/ecrobot/../ecrobot/libecrobot.a(ecrobot_HiTechnic.o)
i2c_timer_isr_C                                   ../../../nxtOSEK/ecrobot/../ecrobot/libecrobot.a(i2c.oram)
                                                  build/config/at91sam7s-gnu/irq.oram
i2c_timer_isr_entry                               build/config/at91sam7s-gnu/irq.oram
                                                  ../../../nxtOSEK/ecrobot/../ecrobot/libecrobot.a(i2c.oram)
init_OS_flag                                      build/ecrobot_base.o
                                                  build/ecrobot.o
init_sensors                                      ../../../nxtOSEK/ecrobot/../ecrobot/libecrobot.a(sensors.oram)
                                                  ../../../nxtOSEK/ecrobot/../ecrobot/libecrobot.a(flash_loader.oram)
int_return                                        build/config/at91sam7s-gnu/cpu_support.oram
interrupt_initialize                              build/kernel/interrupt.o
interrupts_enable                                 ../../../nxtOSEK/ecrobot/../ecrobot/libecrobot.a(interrupts.oram)
                                                  ../../../nxtOSEK/ecrobot/../ecrobot/libecrobot.a(flashprog.oram)
                                                  ../../../nxtOSEK/ecrobot/../ecrobot/libecrobot.a(flash_loader.oram)
                                                  ../../../nxtOSEK/ecrobot/../ecrobot/libecrobot.a(i2c.oram)
                                                  ../../../nxtOSEK/ecrobot/../ecrobot/libecrobot.a(nxt_motors.oram)
                                                  ../../../nxtOSEK/ecrobot/../ecrobot/libecrobot.a(nxt_spi.oram)
                                                  ../../../nxtOSEK/ecrobot/../ecrobot/libecrobot.a(twi.oram)
                                                  ../../../nxtOSEK/ecrobot/../ecrobot/libecrobot.a(udp.oram)
                                                  ../../../nxtOSEK/ecrobot/../ecrobot/libecrobot.a(aic.oram)
                                                  ../../../nxtOSEK/ecrobot/../ecrobot/libecrobot.a(systick.oram)
                                                  ../../../nxtOSEK/ecrobot/../ecrobot/libecrobot.a(uart.oram)
interrupts_get_and_disable                        ../../../nxtOSEK/ecrobot/../ecrobot/libecrobot.a(interrupts.oram)
                                                  ../../../nxtOSEK/ecrobot/../ecrobot/libecrobot.a(flashprog.oram)
                                                  ../../../nxtOSEK/ecrobot/../ecrobot/libecrobot.a(i2c.oram)
                                                  ../../../nxtOSEK/ecrobot/../ecrobot/libecrobot.a(nxt_motors.oram)
                                                  ../../../nxtOSEK/ecrobot/../ecrobot/libecrobot.a(nxt_spi.oram)
                                                  ../../../nxtOSEK/ecrobot/../ecrobot/libecrobot.a(twi.oram)
                                                  ../../../nxtOSEK/ecrobot/../ecrobot/libecrobot.a(udp.oram)
                                                  ../../../nxtOSEK/ecrobot/../ecrobot/libecrobot.a(aic.oram)
                                                  ../../../nxtOSEK/ecrobot/../ecrobot/libecrobot.a(systick.oram)
                                                  ../../../nxtOSEK/ecrobot/../ecrobot/libecrobot.a(uart.oram)
ipl_maxisr2                                       build/./kernel_cfg.o
is_bios_version_equal                             ../../../nxtOSEK/ecrobot/../ecrobot/libecrobot.a(flash_loader.oram)
isrcb_lastres                                     build/./kernel_cfg.o
                                                  build/kernel/resource.o
                                                  build/kernel/interrupt.o
isrinib_intpri                                    build/./kernel_cfg.o
                                                  build/kernel/resource.o
logvol                                            ../../../nxtOSEK/ecrobot/../ecrobot/libecrobot.a(sound.oram)
main                                              build/ecrobot.o
                                                  build/ecrobot_init.o
make_active                                       build/kernel/task.o
                                                  build/kernel/task_manage.o
make_runnable                                     build/kernel/task.o
                                                  build/kernel/event.o
memcpy                                            /Users/e125754/etrobo/yagarto-4.6.2/bin/../lib/gcc/arm-none-eabi/4.6.2/../../../../arm-none-eabi/lib/thumb/libc.a(lib_a-memcpy.o)
                                                  /Users/e125754/etrobo/yagarto-4.6.2/bin/../lib/gcc/arm-none-eabi/4.6.2/thumb/libgcc.a(unwind-arm.o)
                                                  ../../../nxtOSEK/ecrobot/../ecrobot/libecrobot.a(ecrobot_usb.o)
                                                  ../../../nxtOSEK/ecrobot/../ecrobot/libecrobot.a(bt.oram)
                                                  ../../../nxtOSEK/ecrobot/../ecrobot/libecrobot.a(udp.oram)
memset                                            /Users/e125754/etrobo/yagarto-4.6.2/bin/../lib/gcc/arm-none-eabi/4.6.2/../../../../arm-none-eabi/lib/thumb/libc.a(lib_a-memset.o)
                                                  ../../../nxtOSEK/ecrobot/../ecrobot/libecrobot.a(ecrobot_usb.o)
                                                  ../../../nxtOSEK/ecrobot/../ecrobot/libecrobot.a(flash_loader.oram)
                                                  ../../../nxtOSEK/ecrobot/../ecrobot/libecrobot.a(nxt_avr.oram)
                                                  ../../../nxtOSEK/ecrobot/../ecrobot/libecrobot.a(i2c.oram)
                                                  ../../../nxtOSEK/ecrobot/../ecrobot/libecrobot.a(display.oram)
                                                  ../../../nxtOSEK/ecrobot/../ecrobot/libecrobot.a(ecrobot_interface.o)
                                                  build/ecrobot_base.o
                                                  build/ecrobot_bluetooth.o
mode                                              ../../../nxtOSEK/ecrobot/../ecrobot/libecrobot.a(nxt_spi.oram)
nextpri                                           build/kernel/task_manage.o
                                                  build/kernel/task.o
                                                  build/kernel/resource.o
nop                                               build/config/at91sam7s-gnu/cpu_support.oram
nxt_avr_1kHz_update                               ../../../nxtOSEK/ecrobot/../ecrobot/libecrobot.a(nxt_avr.oram)
                                                  ../../../nxtOSEK/ecrobot/../ecrobot/libecrobot.a(flashprog.oram)
                                                  ../../../nxtOSEK/ecrobot/../ecrobot/libecrobot.a(systick.oram)
nxt_avr_firmware_update_mode                      ../../../nxtOSEK/ecrobot/../ecrobot/libecrobot.a(nxt_avr.oram)
nxt_avr_init                                      ../../../nxtOSEK/ecrobot/../ecrobot/libecrobot.a(nxt_avr.oram)
                                                  ../../../nxtOSEK/ecrobot/../ecrobot/libecrobot.a(flash_loader.oram)
nxt_avr_link_init                                 ../../../nxtOSEK/ecrobot/../ecrobot/libecrobot.a(nxt_avr.oram)
nxt_avr_power_down                                ../../../nxtOSEK/ecrobot/../ecrobot/libecrobot.a(nxt_avr.oram)
                                                  ../../../nxtOSEK/ecrobot/../ecrobot/libecrobot.a(flash_loader.oram)
                                                  build/ecrobot.o
                                                  build/ecrobot_base.o
nxt_avr_set_input_power                           ../../../nxtOSEK/ecrobot/../ecrobot/libecrobot.a(nxt_avr.oram)
                                                  ../../../nxtOSEK/ecrobot/../ecrobot/libecrobot.a(sensors1.oram)
                                                  ../../../nxtOSEK/ecrobot/../ecrobot/libecrobot.a(sensors.oram)
                                                  ../../../nxtOSEK/ecrobot/../ecrobot/libecrobot.a(ecrobot_interface.o)
nxt_avr_set_motor                                 ../../../nxtOSEK/ecrobot/../ecrobot/libecrobot.a(nxt_avr.oram)
                                                  ../../../nxtOSEK/ecrobot/../ecrobot/libecrobot.a(nxt_motors.oram)
nxt_device_init                                   ../../../nxtOSEK/ecrobot/../ecrobot/libecrobot.a(flash_loader.oram)
                                                  build/ecrobot.o
nxt_lcd_command                                   ../../../nxtOSEK/ecrobot/../ecrobot/libecrobot.a(nxt_lcd.oram)
nxt_lcd_enable                                    ../../../nxtOSEK/ecrobot/../ecrobot/libecrobot.a(nxt_lcd.oram)
nxt_lcd_force_update                              ../../../nxtOSEK/ecrobot/../ecrobot/libecrobot.a(nxt_lcd.oram)
                                                  ../../../nxtOSEK/ecrobot/../ecrobot/libecrobot.a(display.oram)
nxt_lcd_init                                      ../../../nxtOSEK/ecrobot/../ecrobot/libecrobot.a(nxt_lcd.oram)
                                                  ../../../nxtOSEK/ecrobot/../ecrobot/libecrobot.a(display.oram)
nxt_lcd_inverse_display                           ../../../nxtOSEK/ecrobot/../ecrobot/libecrobot.a(nxt_lcd.oram)
nxt_lcd_power_down                                ../../../nxtOSEK/ecrobot/../ecrobot/libecrobot.a(nxt_lcd.oram)
                                                  ../../../nxtOSEK/ecrobot/../ecrobot/libecrobot.a(flash_loader.oram)
                                                  build/ecrobot.o
                                                  build/ecrobot_base.o
nxt_lcd_power_up                                  ../../../nxtOSEK/ecrobot/../ecrobot/libecrobot.a(nxt_lcd.oram)
nxt_lcd_reset                                     ../../../nxtOSEK/ecrobot/../ecrobot/libecrobot.a(nxt_lcd.oram)
nxt_lcd_set_all_pixels_on                         ../../../nxtOSEK/ecrobot/../ecrobot/libecrobot.a(nxt_lcd.oram)
nxt_lcd_set_bias_ratio                            ../../../nxtOSEK/ecrobot/../ecrobot/libecrobot.a(nxt_lcd.oram)
nxt_lcd_set_col                                   ../../../nxtOSEK/ecrobot/../ecrobot/libecrobot.a(nxt_lcd.oram)
nxt_lcd_set_cursor_update                         ../../../nxtOSEK/ecrobot/../ecrobot/libecrobot.a(nxt_lcd.oram)
nxt_lcd_set_frame_rate                            ../../../nxtOSEK/ecrobot/../ecrobot/libecrobot.a(nxt_lcd.oram)
nxt_lcd_set_map_control                           ../../../nxtOSEK/ecrobot/../ecrobot/libecrobot.a(nxt_lcd.oram)
nxt_lcd_set_multiplex_rate                        ../../../nxtOSEK/ecrobot/../ecrobot/libecrobot.a(nxt_lcd.oram)
nxt_lcd_set_page_address                          ../../../nxtOSEK/ecrobot/../ecrobot/libecrobot.a(nxt_lcd.oram)
nxt_lcd_set_panel_loading                         ../../../nxtOSEK/ecrobot/../ecrobot/libecrobot.a(nxt_lcd.oram)
nxt_lcd_set_pot                                   ../../../nxtOSEK/ecrobot/../ecrobot/libecrobot.a(nxt_lcd.oram)
nxt_lcd_set_pump_control                          ../../../nxtOSEK/ecrobot/../ecrobot/libecrobot.a(nxt_lcd.oram)
nxt_lcd_set_ram_address_control                   ../../../nxtOSEK/ecrobot/../ecrobot/libecrobot.a(nxt_lcd.oram)
nxt_lcd_set_scroll_line                           ../../../nxtOSEK/ecrobot/../ecrobot/libecrobot.a(nxt_lcd.oram)
nxt_lcd_set_temp_comp                             ../../../nxtOSEK/ecrobot/../ecrobot/libecrobot.a(nxt_lcd.oram)
nxt_lcd_update                                    ../../../nxtOSEK/ecrobot/../ecrobot/libecrobot.a(nxt_lcd.oram)
                                                  ../../../nxtOSEK/ecrobot/../ecrobot/libecrobot.a(display.oram)
nxt_motor_1kHz_process                            ../../../nxtOSEK/ecrobot/../ecrobot/libecrobot.a(nxt_motors.oram)
                                                  ../../../nxtOSEK/ecrobot/../ecrobot/libecrobot.a(systick.oram)
nxt_motor_command                                 ../../../nxtOSEK/ecrobot/../ecrobot/libecrobot.a(nxt_motors.oram)
nxt_motor_get_count                               ../../../nxtOSEK/ecrobot/../ecrobot/libecrobot.a(nxt_motors.oram)
                                                  ../../../nxtOSEK/ecrobot/../ecrobot/libecrobot.a(ecrobot_interface.o)
                                                  build/sample.o
nxt_motor_init                                    ../../../nxtOSEK/ecrobot/../ecrobot/libecrobot.a(nxt_motors.oram)
                                                  ../../../nxtOSEK/ecrobot/../ecrobot/libecrobot.a(flash_loader.oram)
nxt_motor_isr_C                                   ../../../nxtOSEK/ecrobot/../ecrobot/libecrobot.a(nxt_motors.oram)
                                                  build/config/at91sam7s-gnu/irq.oram
nxt_motor_isr_entry                               build/config/at91sam7s-gnu/irq.oram
                                                  ../../../nxtOSEK/ecrobot/../ecrobot/libecrobot.a(nxt_motors.oram)
nxt_motor_quad_decode                             ../../../nxtOSEK/ecrobot/../ecrobot/libecrobot.a(nxt_motors.oram)
nxt_motor_set_count                               ../../../nxtOSEK/ecrobot/../ecrobot/libecrobot.a(nxt_motors.oram)
                                                  ../../../nxtOSEK/ecrobot/../ecrobot/libecrobot.a(ecrobot_interface.o)
                                                  build/sample.o
                                                  build/ecrobot.o
nxt_motor_set_speed                               ../../../nxtOSEK/ecrobot/../ecrobot/libecrobot.a(nxt_motors.oram)
                                                  ../../../nxtOSEK/ecrobot/../ecrobot/libecrobot.a(ecrobot_interface.o)
                                                  build/sample.o
nxt_spi_init                                      ../../../nxtOSEK/ecrobot/../ecrobot/libecrobot.a(nxt_spi.oram)
                                                  ../../../nxtOSEK/ecrobot/../ecrobot/libecrobot.a(nxt_lcd.oram)
nxt_spi_refresh                                   ../../../nxtOSEK/ecrobot/../ecrobot/libecrobot.a(nxt_spi.oram)
                                                  ../../../nxtOSEK/ecrobot/../ecrobot/libecrobot.a(nxt_lcd.oram)
nxt_spi_set_display                               ../../../nxtOSEK/ecrobot/../ecrobot/libecrobot.a(nxt_spi.oram)
                                                  ../../../nxtOSEK/ecrobot/../ecrobot/libecrobot.a(nxt_lcd.oram)
nxt_spi_write                                     ../../../nxtOSEK/ecrobot/../ecrobot/libecrobot.a(nxt_spi.oram)
                                                  ../../../nxtOSEK/ecrobot/../ecrobot/libecrobot.a(nxt_lcd.oram)
nxtosek_splash_bmp_end                            ../../../nxtOSEK/ecrobot/../ecrobot/libecrobot.a(nxtosek_splash.obmp)
nxtosek_splash_bmp_size                           ../../../nxtOSEK/ecrobot/../ecrobot/libecrobot.a(nxtosek_splash.obmp)
nxtosek_splash_bmp_start                          ../../../nxtOSEK/ecrobot/../ecrobot/libecrobot.a(nxtosek_splash.obmp)
                                                  build/ecrobot_base.o
object_initialize                                 build/./kernel_cfg.o
                                                  build/kernel/osctl.o
page                                              ../../../nxtOSEK/ecrobot/../ecrobot/libecrobot.a(nxt_spi.oram)
poll_sensors                                      ../../../nxtOSEK/ecrobot/../ecrobot/libecrobot.a(sensors.oram)
preempt                                           build/kernel/task.o
                                                  build/kernel/task_manage.o
                                                  build/kernel/resource.o
prefetch_abort_handler                            build/ecrobot_init.o
                                                  build/nxtvm/platform/nxt/vectors.o
                                                  build/nxtvm/platform/nxt/vectors.o
raise                                             /Users/e125754/etrobo/yagarto-4.6.2/bin/../lib/gcc/arm-none-eabi/4.6.2/../../../../arm-none-eabi/lib/thumb/libc.a(lib_a-signal.o)
                                                  /Users/e125754/etrobo/yagarto-4.6.2/bin/../lib/gcc/arm-none-eabi/4.6.2/../../../../arm-none-eabi/lib/thumb/libc.a(lib_a-abort.o)
read_buttons                                      ../../../nxtOSEK/ecrobot/../ecrobot/libecrobot.a(sensors.oram)
rescb_prevpri                                     build/./kernel_cfg.o
                                                  build/kernel/resource.o
rescb_prevres                                     build/./kernel_cfg.o
                                                  build/kernel/resource.o
reserved_handler                                  build/ecrobot_init.o
                                                  build/nxtvm/platform/nxt/vectors.o
                                                  build/nxtvm/platform/nxt/vectors.o
resinib_ceilpri                                   build/./kernel_cfg.o
                                                  build/kernel/resource.o
resource_initialize                               build/kernel/resource.o
restart_NXT                                       build/ecrobot_base.o
                                                  ../../../nxtOSEK/ecrobot/../ecrobot/libecrobot.a(ecrobot_interface.o)
restore_core_regs                                 /Users/e125754/etrobo/yagarto-4.6.2/bin/../lib/gcc/arm-none-eabi/4.6.2/thumb/libgcc.a(libunwind.o)
                                                  /Users/e125754/etrobo/yagarto-4.6.2/bin/../lib/gcc/arm-none-eabi/4.6.2/thumb/libgcc.a(unwind-arm.o)
runisr                                            build/config/at91sam7s-gnu/irq.oram
                                                  build/config/at91sam7s-gnu/cpu_support.oram
                                                  build/kernel/resource.o
                                                  build/kernel/interrupt.o
runtsk                                            build/config/at91sam7s-gnu/cpu_support.oram
                                                  build/kernel/task_manage.o
                                                  build/kernel/task.o
                                                  build/kernel/resource.o
                                                  build/kernel/event.o
rx_buf                                            build/sample.o
sample                                            ../../../nxtOSEK/ecrobot/../ecrobot/libecrobot.a(sound.oram)
sample_pattern                                    ../../../nxtOSEK/ecrobot/../ecrobot/libecrobot.a(sound.oram)
schedtsk                                          build/config/at91sam7s-gnu/cpu_support.oram
                                                  build/kernel/task.o
search_schedtsk                                   build/kernel/task.o
                                                  build/kernel/task_manage.o
                                                  build/kernel/event.o
sensor_adc                                        ../../../nxtOSEK/ecrobot/../ecrobot/libecrobot.a(nxt_avr.oram)
                                                  ../../../nxtOSEK/ecrobot/../ecrobot/libecrobot.a(sensors1.oram)
                                                  ../../../nxtOSEK/ecrobot/../ecrobot/libecrobot.a(sensors.oram)
                                                  ../../../nxtOSEK/ecrobot/../ecrobot/libecrobot.a(ecrobot_interface.o)
                                                  ../../../nxtOSEK/ecrobot/../ecrobot/libecrobot.a(ecrobot_HiTechnic.o)
sensor_pins                                       ../../../nxtOSEK/ecrobot/../ecrobot/libecrobot.a(sensors1.oram)
                                                  ../../../nxtOSEK/ecrobot/../ecrobot/libecrobot.a(colorsensor.o)
sensors                                           ../../../nxtOSEK/ecrobot/../ecrobot/libecrobot.a(sensors.oram)
set_OS_flag                                       build/ecrobot_base.o
                                                  build/ecrobot.o
set_digi0                                         ../../../nxtOSEK/ecrobot/../ecrobot/libecrobot.a(sensors.oram)
                                                  ../../../nxtOSEK/ecrobot/../ecrobot/libecrobot.a(ecrobot_interface.o)
set_digi1                                         ../../../nxtOSEK/ecrobot/../ecrobot/libecrobot.a(sensors.oram)
set_flash_request                                 ../../../nxtOSEK/ecrobot/../ecrobot/libecrobot.a(flash_loader.oram)
                                                  build/ecrobot.o
show_bd_addr                                      build/ecrobot_base.o
                                                  build/ecrobot_bluetooth.o
show_bd_addr_err                                  build/ecrobot_base.o
                                                  build/ecrobot_bluetooth.o
show_main_screen                                  build/ecrobot_base.o
                                                  build/ecrobot.o
show_splash_screen                                build/ecrobot_base.o
                                                  build/ecrobot.o
shutdown_NXT                                      build/ecrobot_base.o
                                                  ../../../nxtOSEK/ecrobot/../ecrobot/libecrobot.a(ecrobot_interface.o)
signal                                            /Users/e125754/etrobo/yagarto-4.6.2/bin/../lib/gcc/arm-none-eabi/4.6.2/../../../../arm-none-eabi/lib/thumb/libc.a(lib_a-signal.o)
silence                                           ../../../nxtOSEK/ecrobot/../ecrobot/libecrobot.a(sound.oram)
sine                                              ../../../nxtOSEK/ecrobot/../ecrobot/libecrobot.a(sound.oram)
sound_disable                                     ../../../nxtOSEK/ecrobot/../ecrobot/libecrobot.a(sound.oram)
sound_enable                                      ../../../nxtOSEK/ecrobot/../ecrobot/libecrobot.a(sound.oram)
sound_fill_sample_buffer                          ../../../nxtOSEK/ecrobot/../ecrobot/libecrobot.a(sound.oram)
sound_freq                                        ../../../nxtOSEK/ecrobot/../ecrobot/libecrobot.a(sound.oram)
sound_freq_vol                                    ../../../nxtOSEK/ecrobot/../ecrobot/libecrobot.a(sound.oram)
                                                  ../../../nxtOSEK/ecrobot/../ecrobot/libecrobot.a(ecrobot_interface.o)
sound_get_time                                    ../../../nxtOSEK/ecrobot/../ecrobot/libecrobot.a(sound.oram)
                                                  ../../../nxtOSEK/ecrobot/../ecrobot/libecrobot.a(ecrobot_interface.o)
sound_init                                        ../../../nxtOSEK/ecrobot/../ecrobot/libecrobot.a(sound.oram)
                                                  ../../../nxtOSEK/ecrobot/../ecrobot/libecrobot.a(flash_loader.oram)
sound_interrupt_disable                           ../../../nxtOSEK/ecrobot/../ecrobot/libecrobot.a(sound.oram)
sound_interrupt_enable                            ../../../nxtOSEK/ecrobot/../ecrobot/libecrobot.a(sound.oram)
sound_isr_C                                       ../../../nxtOSEK/ecrobot/../ecrobot/libecrobot.a(sound.oram)
                                                  build/config/at91sam7s-gnu/irq.oram
sound_isr_entry                                   build/config/at91sam7s-gnu/irq.oram
                                                  ../../../nxtOSEK/ecrobot/../ecrobot/libecrobot.a(sound.oram)
sound_mode                                        ../../../nxtOSEK/ecrobot/../ecrobot/libecrobot.a(sound.oram)
sound_play_sample                                 ../../../nxtOSEK/ecrobot/../ecrobot/libecrobot.a(sound.oram)
                                                  ../../../nxtOSEK/ecrobot/../ecrobot/libecrobot.a(ecrobot_interface.o)
sp_get                                            ../../../nxtOSEK/ecrobot/../ecrobot/libecrobot.a(sensors1.oram)
                                                  ../../../nxtOSEK/ecrobot/../ecrobot/libecrobot.a(colorsensor.o)
sp_init                                           ../../../nxtOSEK/ecrobot/../ecrobot/libecrobot.a(sensors1.oram)
sp_read                                           ../../../nxtOSEK/ecrobot/../ecrobot/libecrobot.a(sensors1.oram)
                                                  ../../../nxtOSEK/ecrobot/../ecrobot/libecrobot.a(colorsensor.o)
sp_reset                                          ../../../nxtOSEK/ecrobot/../ecrobot/libecrobot.a(sensors1.oram)
                                                  ../../../nxtOSEK/ecrobot/../ecrobot/libecrobot.a(colorsensor.o)
sp_set                                            ../../../nxtOSEK/ecrobot/../ecrobot/libecrobot.a(sensors1.oram)
                                                  ../../../nxtOSEK/ecrobot/../ecrobot/libecrobot.a(colorsensor.o)
sp_set_mode                                       ../../../nxtOSEK/ecrobot/../ecrobot/libecrobot.a(sensors1.oram)
                                                  ../../../nxtOSEK/ecrobot/../ecrobot/libecrobot.a(colorsensor.o)
sp_set_power                                      ../../../nxtOSEK/ecrobot/../ecrobot/libecrobot.a(sensors1.oram)
spi_isr_C                                         ../../../nxtOSEK/ecrobot/../ecrobot/libecrobot.a(nxt_spi.oram)
                                                  build/config/at91sam7s-gnu/irq.oram
spi_isr_entry                                     build/config/at91sam7s-gnu/irq.oram
                                                  ../../../nxtOSEK/ecrobot/../ecrobot/libecrobot.a(nxt_spi.oram)
spurious_isr                                      build/config/at91sam7s-gnu/irq.oram
                                                  ../../../nxtOSEK/ecrobot/../ecrobot/libecrobot.a(aic.oram)
start                                             build/ecrobot_init.o
                                                  build/nxtvm/platform/nxt/vectors.o
                                                  build/nxtvm/platform/nxt/vectors.o
                                                  build/ecrobot_base.o
start_dispatch                                    build/config/at91sam7s-gnu/cpu_support.oram
                                                  build/kernel/osctl.o
strcmp                                            /Users/e125754/etrobo/yagarto-4.6.2/bin/../lib/gcc/arm-none-eabi/4.6.2/../../../../arm-none-eabi/lib/thumb/libc.a(lib_a-strcmp.o)
                                                  ../../../nxtOSEK/ecrobot/../ecrobot/libecrobot.a(ecrobot_usb.o)
                                                  ../../../nxtOSEK/ecrobot/../ecrobot/libecrobot.a(flash_loader.oram)
strcpy                                            /Users/e125754/etrobo/yagarto-4.6.2/bin/../lib/gcc/arm-none-eabi/4.6.2/../../../../arm-none-eabi/lib/thumb/libc.a(lib_a-strcpy.o)
                                                  ../../../nxtOSEK/ecrobot/../ecrobot/libecrobot.a(ecrobot_usb.o)
                                                  ../../../nxtOSEK/ecrobot/../ecrobot/libecrobot.a(flash_loader.oram)
                                                  build/ecrobot_base.o
strlen                                            /Users/e125754/etrobo/yagarto-4.6.2/bin/../lib/gcc/arm-none-eabi/4.6.2/../../../../arm-none-eabi/lib/thumb/libc.a(lib_a-strlen.o)
                                                  ../../../nxtOSEK/ecrobot/../ecrobot/libecrobot.a(nxt_avr.oram)
                                                  build/ecrobot_base.o
strncpy                                           /Users/e125754/etrobo/yagarto-4.6.2/bin/../lib/gcc/arm-none-eabi/4.6.2/../../../../arm-none-eabi/lib/thumb/libc.a(lib_a-strncpy.o)
                                                  build/ecrobot_bluetooth.o
sus_all_cnt                                       build/kernel/osctl.o
                                                  build/kernel/interrupt.o
swi_handler                                       build/ecrobot_init.o
                                                  build/nxtvm/platform/nxt/vectors.o
                                                  build/nxtvm/platform/nxt/vectors.o
sys_exit                                          build/config/at91sam7s-gnu/lego_nxt/sys_config.o
                                                  build/kernel/osctl.o
sys_initialize                                    build/config/at91sam7s-gnu/lego_nxt/sys_config.o
                                                  build/kernel/osctl.o
systick_get_ms                                    ../../../nxtOSEK/ecrobot/../ecrobot/libecrobot.a(systick.oram)
                                                  ../../../nxtOSEK/ecrobot/../ecrobot/libecrobot.a(flashprog.oram)
                                                  ../../../nxtOSEK/ecrobot/../ecrobot/libecrobot.a(display.oram)
                                                  ../../../nxtOSEK/ecrobot/../ecrobot/libecrobot.a(ecrobot_interface.o)
                                                  build/ecrobot.o
                                                  build/ecrobot_base.o
                                                  build/ecrobot_bluetooth.o
systick_init                                      ../../../nxtOSEK/ecrobot/../ecrobot/libecrobot.a(systick.oram)
                                                  ../../../nxtOSEK/ecrobot/../ecrobot/libecrobot.a(flash_loader.oram)
systick_isr_C                                     ../../../nxtOSEK/ecrobot/../ecrobot/libecrobot.a(systick.oram)
                                                  build/config/at91sam7s-gnu/irq.oram
systick_isr_C1                                    build/syslib/at91sam7s-gnu/lego_nxt/hw_sys_timer.oram
                                                  build/config/at91sam7s-gnu/irq.oram
systick_isr_entry                                 build/config/at91sam7s-gnu/irq.oram
                                                  ../../../nxtOSEK/ecrobot/../ecrobot/libecrobot.a(systick.oram)
systick_low_priority_C                            ../../../nxtOSEK/ecrobot/../ecrobot/libecrobot.a(systick.oram)
                                                  build/syslib/at91sam7s-gnu/lego_nxt/hw_sys_timer.oram
systick_low_priority_entry                        build/config/at91sam7s-gnu/irq.oram
                                                  ../../../nxtOSEK/ecrobot/../ecrobot/libecrobot.a(systick.oram)
systick_resume                                    ../../../nxtOSEK/ecrobot/../ecrobot/libecrobot.a(systick.oram)
                                                  ../../../nxtOSEK/ecrobot/../ecrobot/libecrobot.a(flashprog.oram)
systick_suspend                                   ../../../nxtOSEK/ecrobot/../ecrobot/libecrobot.a(systick.oram)
                                                  ../../../nxtOSEK/ecrobot/../ecrobot/libecrobot.a(flashprog.oram)
systick_test                                      ../../../nxtOSEK/ecrobot/../ecrobot/libecrobot.a(systick.oram)
systick_wait_ms                                   ../../../nxtOSEK/ecrobot/../ecrobot/libecrobot.a(systick.oram)
                                                  ../../../nxtOSEK/ecrobot/../ecrobot/libecrobot.a(flashprog.oram)
                                                  ../../../nxtOSEK/ecrobot/../ecrobot/libecrobot.a(flash_loader.oram)
                                                  ../../../nxtOSEK/ecrobot/../ecrobot/libecrobot.a(nxt_lcd.oram)
                                                  ../../../nxtOSEK/ecrobot/../ecrobot/libecrobot.a(bt.oram)
                                                  ../../../nxtOSEK/ecrobot/../ecrobot/libecrobot.a(display.oram)
                                                  ../../../nxtOSEK/ecrobot/../ecrobot/libecrobot.a(udp.oram)
                                                  ../../../nxtOSEK/ecrobot/../ecrobot/libecrobot.a(colorsensor.o)
                                                  build/sample.o
                                                  build/ecrobot.o
                                                  build/ecrobot_base.o
                                                  build/ecrobot_bluetooth.o
systick_wait_ns                                   ../../../nxtOSEK/ecrobot/../ecrobot/libecrobot.a(systick.oram)
                                                  ../../../nxtOSEK/ecrobot/../ecrobot/libecrobot.a(twi.oram)
task_initialize                                   build/kernel/task.o
                                                  build/./kernel_cfg.o
tcb_actcnt                                        build/./kernel_cfg.o
                                                  build/kernel/task_manage.o
                                                  build/kernel/task.o
tcb_curevt                                        build/./kernel_cfg.o
                                                  build/kernel/task.o
                                                  build/kernel/event.o
tcb_curpri                                        build/config/at91sam7s-gnu/cpu_support.oram
                                                  build/./kernel_cfg.o
                                                  build/kernel/task_manage.o
                                                  build/kernel/task.o
                                                  build/kernel/resource.o
                                                  build/kernel/event.o
tcb_lastres                                       build/./kernel_cfg.o
                                                  build/kernel/task_manage.o
                                                  build/kernel/task.o
                                                  build/kernel/resource.o
                                                  build/kernel/event.o
tcb_next                                          build/./kernel_cfg.o
                                                  build/kernel/task.o
tcb_tstat                                         build/./kernel_cfg.o
                                                  build/kernel/task_manage.o
                                                  build/kernel/task.o
                                                  build/kernel/event.o
tcb_waievt                                        build/./kernel_cfg.o
                                                  build/kernel/task.o
                                                  build/kernel/event.o
tcxb_pc                                           build/config/at91sam7s-gnu/cpu_support.oram
                                                  build/./kernel_cfg.o
                                                  build/kernel/task.o
tcxb_sp                                           build/config/at91sam7s-gnu/cpu_support.oram
                                                  build/./kernel_cfg.o
                                                  build/kernel/task.o
terminate_flash                                   ../../../nxtOSEK/ecrobot/../ecrobot/libecrobot.a(flash_loader.oram)
tinib_autoact                                     build/./kernel_cfg.o
                                                  build/kernel/task.o
tinib_exepri                                      build/./kernel_cfg.o
                                                  build/config/at91sam7s-gnu/cpu_support.oram
                                                  build/kernel/task_manage.o
                                                  build/kernel/event.o
tinib_inipri                                      build/./kernel_cfg.o
                                                  build/kernel/task_manage.o
                                                  build/kernel/task.o
                                                  build/kernel/resource.o
                                                  build/kernel/event.o
tinib_maxact                                      build/./kernel_cfg.o
                                                  build/kernel/task_manage.o
tinib_stk                                         build/./kernel_cfg.o
                                                  build/kernel/task.o
tinib_stksz                                       build/./kernel_cfg.o
                                                  build/kernel/task.o
tinib_task                                        build/./kernel_cfg.o
                                                  build/config/at91sam7s-gnu/cpu_support.oram
tnum_alarm                                        build/./kernel_cfg.o
                                                  build/kernel/alarm.o
tnum_counter                                      build/./kernel_cfg.o
                                                  build/kernel/alarm.o
tnum_exttask                                      build/./kernel_cfg.o
                                                  build/kernel/task.o
                                                  build/kernel/event.o
tnum_isr2                                         build/./kernel_cfg.o
                                                  build/kernel/interrupt.o
tnum_resource                                     build/./kernel_cfg.o
                                                  build/kernel/resource.o
tnum_task                                         build/./kernel_cfg.o
                                                  build/kernel/task_manage.o
                                                  build/kernel/task.o
                                                  build/kernel/event.o
twi_init                                          ../../../nxtOSEK/ecrobot/../ecrobot/libecrobot.a(twi.oram)
                                                  ../../../nxtOSEK/ecrobot/../ecrobot/libecrobot.a(nxt_avr.oram)
twi_isr_C                                         ../../../nxtOSEK/ecrobot/../ecrobot/libecrobot.a(twi.oram)
                                                  build/config/at91sam7s-gnu/irq.oram
twi_isr_entry                                     build/config/at91sam7s-gnu/irq.oram
                                                  ../../../nxtOSEK/ecrobot/../ecrobot/libecrobot.a(twi.oram)
twi_reset                                         ../../../nxtOSEK/ecrobot/../ecrobot/libecrobot.a(twi.oram)
twi_start_read                                    ../../../nxtOSEK/ecrobot/../ecrobot/libecrobot.a(twi.oram)
                                                  ../../../nxtOSEK/ecrobot/../ecrobot/libecrobot.a(nxt_avr.oram)
twi_start_write                                   ../../../nxtOSEK/ecrobot/../ecrobot/libecrobot.a(twi.oram)
                                                  ../../../nxtOSEK/ecrobot/../ecrobot/libecrobot.a(nxt_avr.oram)
twi_status                                        ../../../nxtOSEK/ecrobot/../ecrobot/libecrobot.a(twi.oram)
                                                  ../../../nxtOSEK/ecrobot/../ecrobot/libecrobot.a(flashprog.oram)
                                                  ../../../nxtOSEK/ecrobot/../ecrobot/libecrobot.a(nxt_avr.oram)
uart                                              ../../../nxtOSEK/ecrobot/../ecrobot/libecrobot.a(uart.oram)
uart_CheckBreak                                   ../../../nxtOSEK/ecrobot/../ecrobot/libecrobot.a(uart.oram)
uart_clear_break                                  ../../../nxtOSEK/ecrobot/../ecrobot/libecrobot.a(uart.oram)
uart_close                                        ../../../nxtOSEK/ecrobot/../ecrobot/libecrobot.a(uart.oram)
uart_get_byte                                     ../../../nxtOSEK/ecrobot/../ecrobot/libecrobot.a(uart.oram)
uart_init                                         ../../../nxtOSEK/ecrobot/../ecrobot/libecrobot.a(uart.oram)
uart_isr_C_0                                      ../../../nxtOSEK/ecrobot/../ecrobot/libecrobot.a(uart.oram)
                                                  build/config/at91sam7s-gnu/irq.oram
uart_isr_C_1                                      ../../../nxtOSEK/ecrobot/../ecrobot/libecrobot.a(uart.oram)
                                                  build/config/at91sam7s-gnu/irq.oram
uart_isr_entry_0                                  build/config/at91sam7s-gnu/irq.oram
                                                  ../../../nxtOSEK/ecrobot/../ecrobot/libecrobot.a(uart.oram)
uart_isr_entry_1                                  build/config/at91sam7s-gnu/irq.oram
uart_put_byte                                     ../../../nxtOSEK/ecrobot/../ecrobot/libecrobot.a(uart.oram)
uart_put_str                                      ../../../nxtOSEK/ecrobot/../ecrobot/libecrobot.a(uart.oram)
uart_set_break                                    ../../../nxtOSEK/ecrobot/../ecrobot/libecrobot.a(uart.oram)
uart_us0_init_irq                                 ../../../nxtOSEK/ecrobot/../ecrobot/libecrobot.a(uart.oram)
uart_us0_interrupts_enable                        ../../../nxtOSEK/ecrobot/../ecrobot/libecrobot.a(uart.oram)
udp_disable                                       ../../../nxtOSEK/ecrobot/../ecrobot/libecrobot.a(udp.oram)
                                                  ../../../nxtOSEK/ecrobot/../ecrobot/libecrobot.a(ecrobot_usb.o)
udp_enable                                        ../../../nxtOSEK/ecrobot/../ecrobot/libecrobot.a(udp.oram)
                                                  ../../../nxtOSEK/ecrobot/../ecrobot/libecrobot.a(ecrobot_usb.o)
udp_init                                          ../../../nxtOSEK/ecrobot/../ecrobot/libecrobot.a(udp.oram)
                                                  ../../../nxtOSEK/ecrobot/../ecrobot/libecrobot.a(ecrobot_usb.o)
udp_isr_C                                         ../../../nxtOSEK/ecrobot/../ecrobot/libecrobot.a(udp.oram)
                                                  build/config/at91sam7s-gnu/irq.oram
udp_isr_entry                                     build/config/at91sam7s-gnu/irq.oram
                                                  ../../../nxtOSEK/ecrobot/../ecrobot/libecrobot.a(udp.oram)
udp_read                                          ../../../nxtOSEK/ecrobot/../ecrobot/libecrobot.a(udp.oram)
                                                  ../../../nxtOSEK/ecrobot/../ecrobot/libecrobot.a(ecrobot_usb.o)
udp_reset                                         ../../../nxtOSEK/ecrobot/../ecrobot/libecrobot.a(udp.oram)
udp_set_name                                      ../../../nxtOSEK/ecrobot/../ecrobot/libecrobot.a(udp.oram)
                                                  ../../../nxtOSEK/ecrobot/../ecrobot/libecrobot.a(ecrobot_usb.o)
udp_set_serialno                                  ../../../nxtOSEK/ecrobot/../ecrobot/libecrobot.a(udp.oram)
                                                  ../../../nxtOSEK/ecrobot/../ecrobot/libecrobot.a(ecrobot_usb.o)
udp_status                                        ../../../nxtOSEK/ecrobot/../ecrobot/libecrobot.a(udp.oram)
                                                  ../../../nxtOSEK/ecrobot/../ecrobot/libecrobot.a(ecrobot_usb.o)
udp_write                                         ../../../nxtOSEK/ecrobot/../ecrobot/libecrobot.a(udp.oram)
                                                  ../../../nxtOSEK/ecrobot/../ecrobot/libecrobot.a(ecrobot_usb.o)
undef_handler                                     build/ecrobot_init.o
                                                  build/nxtvm/platform/nxt/vectors.o
                                                  build/nxtvm/platform/nxt/vectors.o
unset_digi0                                       ../../../nxtOSEK/ecrobot/../ecrobot/libecrobot.a(sensors.oram)
                                                  ../../../nxtOSEK/ecrobot/../ecrobot/libecrobot.a(ecrobot_interface.o)
unset_digi1                                       ../../../nxtOSEK/ecrobot/../ecrobot/libecrobot.a(sensors.oram)
user_1ms_isr_type2                                build/sample.o
                                                  build/syslib/at91sam7s-gnu/lego_nxt/hw_sys_timer.oram
